; generated by Component: ARM Compiler 5.06 update 1 (build 61) Tool: ArmCC [4d35ad]
; commandline ArmCC [--c99 --list --split_sections --debug -c --asm --interleave -o.\flash\obj\main.o --asm_dir=.\Flash\List\ --list_dir=.\Flash\List\ --depend=.\flash\obj\main.d --cpu=Cortex-M4.fp --apcs=interwork -O0 --diag_suppress=9931,870 -I..\..\Libraries\STM32F4xx_StdPeriph_Driver\inc -I..\..\Libraries\CMSIS\Device\ST\STM32F4xx\Include -I..\..\Libraries\CMSIS\Include -I..\..\Libraries\STM32_USB_HOST_Library\Class\MSC\inc -I..\..\Libraries\STM32_USB_HOST_Library\Core\inc -I..\..\Libraries\STM32_USB_OTG_Driver\inc -I..\..\User -I..\..\User\bsp_stm32f4xx -I..\..\User\bsp_stm32f4xx\inc -I..\..\User\FatFS\src -I..\..\User\usbh_mass_storage -ID:\Software\keil\ARM\RV31\INC -ID:\Software\keil\ARM\CMSIS\Include -ID:\Software\keil\ARM\Inc\ST\STM32F4xx -D__MICROLIB -D__UVISION_VERSION=518 -DUSE_STDPERIPH_DRIVER -DSTM32F40XX -DUSE_USB_OTG_HS -DUSE_EMBEDDED_PHY --signed_chars --omf_browse=.\flash\obj\main.crf ..\..\User\main.c]
                          THUMB

                          AREA ||i.AD7606_Array||, CODE, READONLY, ALIGN=2

                  AD7606_Array PROC
;;;890    
;;;891    void AD7606_Array(void)
000000  b510              PUSH     {r4,lr}
;;;892    {
;;;893    	  int l_6;
;;;894    		value_buf0[count]=chan[0];
000002  4834              LDR      r0,|L1.212|
000004  8800              LDRH     r0,[r0,#0]  ; chan
000006  4934              LDR      r1,|L1.216|
000008  4a34              LDR      r2,|L1.220|
00000a  7812              LDRB     r2,[r2,#0]  ; count
00000c  f8210012          STRH     r0,[r1,r2,LSL #1]
;;;895    		value_buf1[count]=chan[1];
000010  4830              LDR      r0,|L1.212|
000012  8841              LDRH     r1,[r0,#2]  ; chan
000014  4832              LDR      r0,|L1.224|
000016  4a31              LDR      r2,|L1.220|
000018  7812              LDRB     r2,[r2,#0]  ; count
00001a  f8201012          STRH     r1,[r0,r2,LSL #1]
;;;896    		value_buf2[count]=chan[2];
00001e  482d              LDR      r0,|L1.212|
000020  8880              LDRH     r0,[r0,#4]  ; chan
000022  4930              LDR      r1,|L1.228|
000024  4a2d              LDR      r2,|L1.220|
000026  7812              LDRB     r2,[r2,#0]  ; count
000028  f8210012          STRH     r0,[r1,r2,LSL #1]
;;;897    		value_buf3[count]=chan[3]; 
00002c  4829              LDR      r0,|L1.212|
00002e  88c0              LDRH     r0,[r0,#6]  ; chan
000030  492d              LDR      r1,|L1.232|
000032  4a2a              LDR      r2,|L1.220|
000034  7812              LDRB     r2,[r2,#0]  ; count
000036  f8210012          STRH     r0,[r1,r2,LSL #1]
;;;898    		value_buf4[count]=chan[4];
00003a  4826              LDR      r0,|L1.212|
00003c  8900              LDRH     r0,[r0,#8]  ; chan
00003e  492b              LDR      r1,|L1.236|
000040  4a26              LDR      r2,|L1.220|
000042  7812              LDRB     r2,[r2,#0]  ; count
000044  f8210012          STRH     r0,[r1,r2,LSL #1]
;;;899    		value_buf5[count]=chan[5]; 
000048  4822              LDR      r0,|L1.212|
00004a  8941              LDRH     r1,[r0,#0xa]  ; chan
00004c  4828              LDR      r0,|L1.240|
00004e  4a23              LDR      r2,|L1.220|
000050  7812              LDRB     r2,[r2,#0]  ; count
000052  f8201012          STRH     r1,[r0,r2,LSL #1]
;;;900    //		value_buf6[count]=sum;
;;;901       
;;;902    	  count++;
000056  4821              LDR      r0,|L1.220|
000058  7800              LDRB     r0,[r0,#0]  ; count
00005a  1c40              ADDS     r0,r0,#1
00005c  491f              LDR      r1,|L1.220|
00005e  7008              STRB     r0,[r1,#0]
;;;903    	
;;;904    	if(count%N==0)
000060  4608              MOV      r0,r1
000062  7800              LDRB     r0,[r0,#0]  ; count
000064  2109              MOVS     r1,#9
000066  fb90f2f1          SDIV     r2,r0,r1
00006a  fb010012          MLS      r0,r1,r2,r0
00006e  bb80              CBNZ     r0,|L1.210|
;;;905    	{
;;;906    		AD7606_Filter();
000070  f7fffffe          BL       AD7606_Filter
;;;907    		biaozhi_lb=1;
000074  2001              MOVS     r0,#1
000076  491f              LDR      r1,|L1.244|
000078  6008              STR      r0,[r1,#0]  ; biaozhi_lb
;;;908    		for( l_6=0;l_6<N-1;l_6++)
00007a  2400              MOVS     r4,#0
00007c  e024              B        |L1.200|
                  |L1.126|
;;;909    		{
;;;910    			value_buf0[l_6]=value_buf0[l_6+1];
00007e  4916              LDR      r1,|L1.216|
000080  1c60              ADDS     r0,r4,#1
000082  f8310010          LDRH     r0,[r1,r0,LSL #1]
000086  f8210014          STRH     r0,[r1,r4,LSL #1]
;;;911    			value_buf1[l_6]=value_buf1[l_6+1];
00008a  4915              LDR      r1,|L1.224|
00008c  1c60              ADDS     r0,r4,#1
00008e  f8310010          LDRH     r0,[r1,r0,LSL #1]
000092  f8210014          STRH     r0,[r1,r4,LSL #1]
;;;912    			value_buf2[l_6]=value_buf2[l_6+1];
000096  4913              LDR      r1,|L1.228|
000098  1c60              ADDS     r0,r4,#1
00009a  f8310010          LDRH     r0,[r1,r0,LSL #1]
00009e  f8210014          STRH     r0,[r1,r4,LSL #1]
;;;913    			value_buf3[l_6]=value_buf3[l_6+1];
0000a2  4911              LDR      r1,|L1.232|
0000a4  1c60              ADDS     r0,r4,#1
0000a6  f8310010          LDRH     r0,[r1,r0,LSL #1]
0000aa  f8210014          STRH     r0,[r1,r4,LSL #1]
;;;914    			value_buf4[l_6]=value_buf4[l_6+1];
0000ae  490f              LDR      r1,|L1.236|
0000b0  1c60              ADDS     r0,r4,#1
0000b2  f8310010          LDRH     r0,[r1,r0,LSL #1]
0000b6  f8210014          STRH     r0,[r1,r4,LSL #1]
;;;915    			value_buf5[l_6]=value_buf5[l_6+1];
0000ba  490d              LDR      r1,|L1.240|
0000bc  1c60              ADDS     r0,r4,#1
0000be  f8310010          LDRH     r0,[r1,r0,LSL #1]
0000c2  f8210014          STRH     r0,[r1,r4,LSL #1]
0000c6  1c64              ADDS     r4,r4,#1              ;908
                  |L1.200|
0000c8  2c08              CMP      r4,#8                 ;908
0000ca  dbd8              BLT      |L1.126|
;;;916    //			value_buf6[l]=value_buf6[l+1];
;;;917    		}
;;;918    		count=N-1;
0000cc  2008              MOVS     r0,#8
0000ce  4903              LDR      r1,|L1.220|
0000d0  7008              STRB     r0,[r1,#0]
                  |L1.210|
;;;919    	}
;;;920    
;;;921    }
0000d2  bd10              POP      {r4,pc}
;;;922    
                          ENDP

                  |L1.212|
                          DCD      chan
                  |L1.216|
                          DCD      value_buf0
                  |L1.220|
                          DCD      count
                  |L1.224|
                          DCD      value_buf1
                  |L1.228|
                          DCD      value_buf2
                  |L1.232|
                          DCD      value_buf3
                  |L1.236|
                          DCD      value_buf4
                  |L1.240|
                          DCD      value_buf5
                  |L1.244|
                          DCD      biaozhi_lb

                          AREA ||i.AD7606_Array_1||, CODE, READONLY, ALIGN=2

                  AD7606_Array_1 PROC
;;;1049   
;;;1050   void AD7606_Array_1(void)
000000  b510              PUSH     {r4,lr}
;;;1051   {
;;;1052   	  int l_1;
;;;1053   		value_buf6[count_1]=sum_lb;  
000002  4814              LDR      r0,|L2.84|
000004  f9b00000          LDRSH    r0,[r0,#0]  ; sum_lb
000008  4913              LDR      r1,|L2.88|
00000a  4a14              LDR      r2,|L2.92|
00000c  7812              LDRB     r2,[r2,#0]  ; count_1
00000e  f8210012          STRH     r0,[r1,r2,LSL #1]
;;;1054   	  count_1++;
000012  4812              LDR      r0,|L2.92|
000014  7800              LDRB     r0,[r0,#0]  ; count_1
000016  1c40              ADDS     r0,r0,#1
000018  4910              LDR      r1,|L2.92|
00001a  7008              STRB     r0,[r1,#0]
;;;1055   	
;;;1056   	if(count_1%M==0)
00001c  4608              MOV      r0,r1
00001e  7800              LDRB     r0,[r0,#0]  ; count_1
000020  2109              MOVS     r1,#9
000022  fb90f2f1          SDIV     r2,r0,r1
000026  fb010012          MLS      r0,r1,r2,r0
00002a  b990              CBNZ     r0,|L2.82|
;;;1057   	{
;;;1058   		AD7606_Filter_1();
00002c  f7fffffe          BL       AD7606_Filter_1
;;;1059   		biaozhi_lb_1=1;
000030  2001              MOVS     r0,#1
000032  490b              LDR      r1,|L2.96|
000034  6008              STR      r0,[r1,#0]  ; biaozhi_lb_1
;;;1060   		for( l_1=0;l_1<M-1;l_1++)
000036  2400              MOVS     r4,#0
000038  e006              B        |L2.72|
                  |L2.58|
;;;1061   		{
;;;1062   			value_buf6[l_1]=value_buf6[l_1+1];
00003a  4907              LDR      r1,|L2.88|
00003c  1c60              ADDS     r0,r4,#1
00003e  f8310010          LDRH     r0,[r1,r0,LSL #1]
000042  f8210014          STRH     r0,[r1,r4,LSL #1]
000046  1c64              ADDS     r4,r4,#1              ;1060
                  |L2.72|
000048  2c08              CMP      r4,#8                 ;1060
00004a  dbf6              BLT      |L2.58|
;;;1063   		}
;;;1064   		count_1=M-1;
00004c  2008              MOVS     r0,#8
00004e  4903              LDR      r1,|L2.92|
000050  7008              STRB     r0,[r1,#0]
                  |L2.82|
;;;1065   	}
;;;1066   
;;;1067   }
000052  bd10              POP      {r4,pc}
;;;1068   
                          ENDP

                  |L2.84|
                          DCD      sum_lb
                  |L2.88|
                          DCD      value_buf6
                  |L2.92|
                          DCD      count_1
                  |L2.96|
                          DCD      biaozhi_lb_1

                          AREA ||i.AD7606_Filter||, CODE, READONLY, ALIGN=2

                  AD7606_Filter PROC
;;;922    
;;;923    void AD7606_Filter(void)
000000  b570              PUSH     {r4-r6,lr}
;;;924    { 
000002  b09e              SUB      sp,sp,#0x78
;;;925    	uint8_t p, j;
;;;926    	int16_t temp_lb;
;;;927    	int16_t copy_0[N] = {0};
000004  2114              MOVS     r1,#0x14
000006  a819              ADD      r0,sp,#0x64
000008  f7fffffe          BL       __aeabi_memclr4
;;;928    	int16_t copy_1[N] = {0};
00000c  2114              MOVS     r1,#0x14
00000e  a814              ADD      r0,sp,#0x50
000010  f7fffffe          BL       __aeabi_memclr4
;;;929    	int16_t copy_2[N] = {0};
000014  2114              MOVS     r1,#0x14
000016  a80f              ADD      r0,sp,#0x3c
000018  f7fffffe          BL       __aeabi_memclr4
;;;930    	int16_t copy_3[N] = {0};
00001c  2114              MOVS     r1,#0x14
00001e  a80a              ADD      r0,sp,#0x28
000020  f7fffffe          BL       __aeabi_memclr4
;;;931    	int16_t copy_4[N] = {0};
000024  2114              MOVS     r1,#0x14
000026  a805              ADD      r0,sp,#0x14
000028  f7fffffe          BL       __aeabi_memclr4
;;;932    	int16_t copy_5[N] = {0};	
00002c  2114              MOVS     r1,#0x14
00002e  4668              MOV      r0,sp
000030  f7fffffe          BL       __aeabi_memclr4
;;;933    //	int16_t copy_6[N] = {0};	
;;;934    	
;;;935    	
;;;936      memcpy(copy_0, value_buf0, sizeof(int16_t) * N);
000034  2212              MOVS     r2,#0x12
000036  4980              LDR      r1,|L3.568|
000038  a819              ADD      r0,sp,#0x64
00003a  f7fffffe          BL       __aeabi_memcpy
;;;937      memcpy(copy_1, value_buf1, sizeof(int16_t) * N);
00003e  2212              MOVS     r2,#0x12
000040  497e              LDR      r1,|L3.572|
000042  a814              ADD      r0,sp,#0x50
000044  f7fffffe          BL       __aeabi_memcpy
;;;938      memcpy(copy_2, value_buf2, sizeof(int16_t) * N);				
000048  2212              MOVS     r2,#0x12
00004a  497d              LDR      r1,|L3.576|
00004c  a80f              ADD      r0,sp,#0x3c
00004e  f7fffffe          BL       __aeabi_memcpy
;;;939      memcpy(copy_3, value_buf3, sizeof(int16_t) * N);
000052  2212              MOVS     r2,#0x12
000054  497b              LDR      r1,|L3.580|
000056  a80a              ADD      r0,sp,#0x28
000058  f7fffffe          BL       __aeabi_memcpy
;;;940      memcpy(copy_4, value_buf4, sizeof(int16_t) * N);	
00005c  2212              MOVS     r2,#0x12
00005e  497a              LDR      r1,|L3.584|
000060  a805              ADD      r0,sp,#0x14
000062  f7fffffe          BL       __aeabi_memcpy
;;;941      memcpy(copy_5, value_buf5, sizeof(int16_t) * N);	
000066  2212              MOVS     r2,#0x12
000068  4978              LDR      r1,|L3.588|
00006a  4668              MOV      r0,sp
00006c  f7fffffe          BL       __aeabi_memcpy
;;;942    //  memcpy(copy_6, value_buf6, sizeof(int16_t) * N);	
;;;943      
;;;944    	//通道0*************************************************************//
;;;945    	for (j=0; j<N-1; j++)		
000070  2500              MOVS     r5,#0
000072  e01e              B        |L3.178|
                  |L3.116|
;;;946    	{
;;;947    		for (p=0; p<N-j-1; p++)
000074  2400              MOVS     r4,#0
000076  e016              B        |L3.166|
                  |L3.120|
;;;948    		{
;;;949    			if (copy_0[p] > copy_0[p+1])
000078  a819              ADD      r0,sp,#0x64
00007a  f9301014          LDRSH    r1,[r0,r4,LSL #1]
00007e  aa19              ADD      r2,sp,#0x64
000080  1c60              ADDS     r0,r4,#1
000082  f9320010          LDRSH    r0,[r2,r0,LSL #1]
000086  4281              CMP      r1,r0
000088  dd0b              BLE      |L3.162|
;;;950    			{
;;;951    				temp_lb = copy_0[p];
00008a  a819              ADD      r0,sp,#0x64
00008c  f9306014          LDRSH    r6,[r0,r4,LSL #1]
;;;952    				copy_0[p] = copy_0[p+1];
000090  a919              ADD      r1,sp,#0x64
000092  1c60              ADDS     r0,r4,#1
000094  f8310010          LDRH     r0,[r1,r0,LSL #1]
000098  f8210014          STRH     r0,[r1,r4,LSL #1]
;;;953    				copy_0[p+1] = temp_lb;
00009c  1c60              ADDS     r0,r4,#1
00009e  f8216010          STRH     r6,[r1,r0,LSL #1]
                  |L3.162|
0000a2  1c60              ADDS     r0,r4,#1              ;947
0000a4  b2c4              UXTB     r4,r0                 ;947
                  |L3.166|
0000a6  f1c50008          RSB      r0,r5,#8              ;947
0000aa  42a0              CMP      r0,r4                 ;947
0000ac  dce4              BGT      |L3.120|
0000ae  1c68              ADDS     r0,r5,#1              ;945
0000b0  b2c5              UXTB     r5,r0                 ;945
                  |L3.178|
0000b2  2d08              CMP      r5,#8                 ;945
0000b4  dbde              BLT      |L3.116|
;;;954    			}
;;;955    		}
;;;956    	}
;;;957    	//通道1*************************************************************//
;;;958    	for (j=0; j<N-1; j++)		
0000b6  2500              MOVS     r5,#0
0000b8  e01e              B        |L3.248|
                  |L3.186|
;;;959    	{
;;;960    		for (p=0; p<N-j-1; p++)
0000ba  2400              MOVS     r4,#0
0000bc  e016              B        |L3.236|
                  |L3.190|
;;;961    		{
;;;962    			if (copy_1[p] > copy_1[p+1])
0000be  a814              ADD      r0,sp,#0x50
0000c0  f9301014          LDRSH    r1,[r0,r4,LSL #1]
0000c4  aa14              ADD      r2,sp,#0x50
0000c6  1c60              ADDS     r0,r4,#1
0000c8  f9320010          LDRSH    r0,[r2,r0,LSL #1]
0000cc  4281              CMP      r1,r0
0000ce  dd0b              BLE      |L3.232|
;;;963    			{
;;;964    				temp_lb = copy_1[p];
0000d0  a814              ADD      r0,sp,#0x50
0000d2  f9306014          LDRSH    r6,[r0,r4,LSL #1]
;;;965    				copy_1[p] = copy_1[p+1];
0000d6  a914              ADD      r1,sp,#0x50
0000d8  1c60              ADDS     r0,r4,#1
0000da  f8310010          LDRH     r0,[r1,r0,LSL #1]
0000de  f8210014          STRH     r0,[r1,r4,LSL #1]
;;;966    				copy_1[p+1] = temp_lb;
0000e2  1c60              ADDS     r0,r4,#1
0000e4  f8216010          STRH     r6,[r1,r0,LSL #1]
                  |L3.232|
0000e8  1c60              ADDS     r0,r4,#1              ;960
0000ea  b2c4              UXTB     r4,r0                 ;960
                  |L3.236|
0000ec  f1c50008          RSB      r0,r5,#8              ;960
0000f0  42a0              CMP      r0,r4                 ;960
0000f2  dce4              BGT      |L3.190|
0000f4  1c68              ADDS     r0,r5,#1              ;958
0000f6  b2c5              UXTB     r5,r0                 ;958
                  |L3.248|
0000f8  2d08              CMP      r5,#8                 ;958
0000fa  dbde              BLT      |L3.186|
;;;967    			}
;;;968    		}
;;;969    	}
;;;970     //通道2*************************************************************//
;;;971    	for (j=0; j<N-1; j++)		
0000fc  2500              MOVS     r5,#0
0000fe  e01e              B        |L3.318|
                  |L3.256|
;;;972    	{
;;;973    		for (p=0; p<N-j-1; p++)
000100  2400              MOVS     r4,#0
000102  e016              B        |L3.306|
                  |L3.260|
;;;974    		{
;;;975    			if (copy_2[p] > copy_2[p+1])
000104  a80f              ADD      r0,sp,#0x3c
000106  f9301014          LDRSH    r1,[r0,r4,LSL #1]
00010a  aa0f              ADD      r2,sp,#0x3c
00010c  1c60              ADDS     r0,r4,#1
00010e  f9320010          LDRSH    r0,[r2,r0,LSL #1]
000112  4281              CMP      r1,r0
000114  dd0b              BLE      |L3.302|
;;;976    			{
;;;977    				temp_lb = copy_2[p];
000116  a80f              ADD      r0,sp,#0x3c
000118  f9306014          LDRSH    r6,[r0,r4,LSL #1]
;;;978    				copy_2[p] = copy_2[p+1];
00011c  a90f              ADD      r1,sp,#0x3c
00011e  1c60              ADDS     r0,r4,#1
000120  f8310010          LDRH     r0,[r1,r0,LSL #1]
000124  f8210014          STRH     r0,[r1,r4,LSL #1]
;;;979    				copy_2[p+1] = temp_lb;
000128  1c60              ADDS     r0,r4,#1
00012a  f8216010          STRH     r6,[r1,r0,LSL #1]
                  |L3.302|
00012e  1c60              ADDS     r0,r4,#1              ;973
000130  b2c4              UXTB     r4,r0                 ;973
                  |L3.306|
000132  f1c50008          RSB      r0,r5,#8              ;973
000136  42a0              CMP      r0,r4                 ;973
000138  dce4              BGT      |L3.260|
00013a  1c68              ADDS     r0,r5,#1              ;971
00013c  b2c5              UXTB     r5,r0                 ;971
                  |L3.318|
00013e  2d08              CMP      r5,#8                 ;971
000140  dbde              BLT      |L3.256|
;;;980    			}
;;;981    		}
;;;982    	}
;;;983    	//通道3*************************************************************//
;;;984    	for (j=0; j<N-1; j++)		
000142  2500              MOVS     r5,#0
000144  e01e              B        |L3.388|
                  |L3.326|
;;;985    	{
;;;986    		for (p=0; p<N-j-1; p++)
000146  2400              MOVS     r4,#0
000148  e016              B        |L3.376|
                  |L3.330|
;;;987    		{
;;;988    			if (copy_3[p] > copy_3[p+1])
00014a  a80a              ADD      r0,sp,#0x28
00014c  f9301014          LDRSH    r1,[r0,r4,LSL #1]
000150  aa0a              ADD      r2,sp,#0x28
000152  1c60              ADDS     r0,r4,#1
000154  f9320010          LDRSH    r0,[r2,r0,LSL #1]
000158  4281              CMP      r1,r0
00015a  dd0b              BLE      |L3.372|
;;;989    			{
;;;990    				temp_lb = copy_3[p];
00015c  a80a              ADD      r0,sp,#0x28
00015e  f9306014          LDRSH    r6,[r0,r4,LSL #1]
;;;991    				copy_3[p] = copy_3[p+1];
000162  a90a              ADD      r1,sp,#0x28
000164  1c60              ADDS     r0,r4,#1
000166  f8310010          LDRH     r0,[r1,r0,LSL #1]
00016a  f8210014          STRH     r0,[r1,r4,LSL #1]
;;;992    				copy_3[p+1] = temp_lb;
00016e  1c60              ADDS     r0,r4,#1
000170  f8216010          STRH     r6,[r1,r0,LSL #1]
                  |L3.372|
000174  1c60              ADDS     r0,r4,#1              ;986
000176  b2c4              UXTB     r4,r0                 ;986
                  |L3.376|
000178  f1c50008          RSB      r0,r5,#8              ;986
00017c  42a0              CMP      r0,r4                 ;986
00017e  dce4              BGT      |L3.330|
000180  1c68              ADDS     r0,r5,#1              ;984
000182  b2c5              UXTB     r5,r0                 ;984
                  |L3.388|
000184  2d08              CMP      r5,#8                 ;984
000186  dbde              BLT      |L3.326|
;;;993    			}
;;;994    		}
;;;995    	}
;;;996    	//通道4*************************************************************//
;;;997    	for (j=0; j<N-1; j++)		
000188  2500              MOVS     r5,#0
00018a  e01e              B        |L3.458|
                  |L3.396|
;;;998    	{
;;;999    		for (p=0; p<N-j-1; p++)
00018c  2400              MOVS     r4,#0
00018e  e016              B        |L3.446|
                  |L3.400|
;;;1000   		{
;;;1001   			if (copy_4[p] > copy_4[p+1])
000190  a805              ADD      r0,sp,#0x14
000192  f9301014          LDRSH    r1,[r0,r4,LSL #1]
000196  aa05              ADD      r2,sp,#0x14
000198  1c60              ADDS     r0,r4,#1
00019a  f9320010          LDRSH    r0,[r2,r0,LSL #1]
00019e  4281              CMP      r1,r0
0001a0  dd0b              BLE      |L3.442|
;;;1002   			{
;;;1003   				temp_lb = copy_4[p];
0001a2  a805              ADD      r0,sp,#0x14
0001a4  f9306014          LDRSH    r6,[r0,r4,LSL #1]
;;;1004   				copy_4[p] = copy_4[p+1];
0001a8  a905              ADD      r1,sp,#0x14
0001aa  1c60              ADDS     r0,r4,#1
0001ac  f8310010          LDRH     r0,[r1,r0,LSL #1]
0001b0  f8210014          STRH     r0,[r1,r4,LSL #1]
;;;1005   				copy_4[p+1] = temp_lb;
0001b4  1c60              ADDS     r0,r4,#1
0001b6  f8216010          STRH     r6,[r1,r0,LSL #1]
                  |L3.442|
0001ba  1c60              ADDS     r0,r4,#1              ;999
0001bc  b2c4              UXTB     r4,r0                 ;999
                  |L3.446|
0001be  f1c50008          RSB      r0,r5,#8              ;999
0001c2  42a0              CMP      r0,r4                 ;999
0001c4  dce4              BGT      |L3.400|
0001c6  1c68              ADDS     r0,r5,#1              ;997
0001c8  b2c5              UXTB     r5,r0                 ;997
                  |L3.458|
0001ca  2d08              CMP      r5,#8                 ;997
0001cc  dbde              BLT      |L3.396|
;;;1006   			}
;;;1007   		}
;;;1008   	}
;;;1009   	//通道5*************************************************************//
;;;1010   	for (j=0; j<N-1; j++)		
0001ce  2500              MOVS     r5,#0
0001d0  e01a              B        |L3.520|
                  |L3.466|
;;;1011   	{
;;;1012   		for (p=0; p<N-j-1; p++)
0001d2  2400              MOVS     r4,#0
0001d4  e012              B        |L3.508|
                  |L3.470|
;;;1013   		{
;;;1014   			if (copy_5[p] > copy_5[p+1])
0001d6  f93d1014          LDRSH    r1,[sp,r4,LSL #1]
0001da  1c60              ADDS     r0,r4,#1
0001dc  f93d0010          LDRSH    r0,[sp,r0,LSL #1]
0001e0  4281              CMP      r1,r0
0001e2  dd09              BLE      |L3.504|
;;;1015   			{
;;;1016   				temp_lb = copy_5[p];
0001e4  f93d6014          LDRSH    r6,[sp,r4,LSL #1]
;;;1017   				copy_5[p] = copy_5[p+1];
0001e8  1c60              ADDS     r0,r4,#1
0001ea  f83d0010          LDRH     r0,[sp,r0,LSL #1]
0001ee  f82d0014          STRH     r0,[sp,r4,LSL #1]
;;;1018   				copy_5[p+1] = temp_lb;
0001f2  1c60              ADDS     r0,r4,#1
0001f4  f82d6010          STRH     r6,[sp,r0,LSL #1]
                  |L3.504|
0001f8  1c60              ADDS     r0,r4,#1              ;1012
0001fa  b2c4              UXTB     r4,r0                 ;1012
                  |L3.508|
0001fc  f1c50008          RSB      r0,r5,#8              ;1012
000200  42a0              CMP      r0,r4                 ;1012
000202  dce8              BGT      |L3.470|
000204  1c68              ADDS     r0,r5,#1              ;1010
000206  b2c5              UXTB     r5,r0                 ;1010
                  |L3.520|
000208  2d08              CMP      r5,#8                 ;1010
00020a  dbe2              BLT      |L3.466|
;;;1019   			}
;;;1020   		}
;;;1021   	}
;;;1022   	//通道和*************************************************************//
;;;1023   //	for (j=0; j<N-1; j++)		
;;;1024   //	{
;;;1025   //		for (p=0; p<N-j-1; p++)
;;;1026   //		{
;;;1027   //			if (copy_6[p] > copy_6[p+1])
;;;1028   //			{
;;;1029   //				temp_lb = copy_6[p];
;;;1030   //				copy_6[p] = copy_6[p+1];
;;;1031   //				copy_6[p+1] = temp_lb;
;;;1032   //			}
;;;1033   //		}
;;;1034   //	}
;;;1035   	
;;;1036   	
;;;1037   	chan[0] = copy_0[(N-1)/2];
00020c  f8bd006c          LDRH     r0,[sp,#0x6c]
000210  490f              LDR      r1,|L3.592|
000212  8008              STRH     r0,[r1,#0]
;;;1038   	chan[1] = copy_1[(N-1)/2];
000214  f8bd0058          LDRH     r0,[sp,#0x58]
000218  8048              STRH     r0,[r1,#2]
;;;1039   	chan[2] = copy_2[(N-1)/2];
00021a  f8bd0044          LDRH     r0,[sp,#0x44]
00021e  8088              STRH     r0,[r1,#4]
;;;1040   	chan[3] = copy_3[(N-1)/2];	
000220  f8bd0030          LDRH     r0,[sp,#0x30]
000224  80c8              STRH     r0,[r1,#6]
;;;1041   	chan[4] = copy_4[(N-1)/2];
000226  f8bd001c          LDRH     r0,[sp,#0x1c]
00022a  8108              STRH     r0,[r1,#8]
;;;1042   	chan[5] = copy_5[(N-1)/2];	
00022c  f8bd0008          LDRH     r0,[sp,#8]
000230  8148              STRH     r0,[r1,#0xa]
;;;1043   //	sum = copy_6[(N-1)/2];
;;;1044   	
;;;1045   	
;;;1046   	
;;;1047   }
000232  b01e              ADD      sp,sp,#0x78
000234  bd70              POP      {r4-r6,pc}
;;;1048   
                          ENDP

000236  0000              DCW      0x0000
                  |L3.568|
                          DCD      value_buf0
                  |L3.572|
                          DCD      value_buf1
                  |L3.576|
                          DCD      value_buf2
                  |L3.580|
                          DCD      value_buf3
                  |L3.584|
                          DCD      value_buf4
                  |L3.588|
                          DCD      value_buf5
                  |L3.592|
                          DCD      chan

                          AREA ||i.AD7606_Filter_1||, CODE, READONLY, ALIGN=2

                  AD7606_Filter_1 PROC
;;;1068   
;;;1069   void AD7606_Filter_1(void)
000000  b570              PUSH     {r4-r6,lr}
;;;1070   { 
000002  b086              SUB      sp,sp,#0x18
;;;1071   	uint8_t p, j;
;;;1072   	int16_t temp_lb;	
;;;1073   	int16_t copy_6[M] = {0};	
000004  2114              MOVS     r1,#0x14
000006  a801              ADD      r0,sp,#4
000008  f7fffffe          BL       __aeabi_memclr4
;;;1074   
;;;1075     memcpy(copy_6, value_buf6, sizeof(int16_t) * N);	
00000c  2212              MOVS     r2,#0x12
00000e  4916              LDR      r1,|L4.104|
000010  a801              ADD      r0,sp,#4
000012  f7fffffe          BL       __aeabi_memcpy
;;;1076   
;;;1077   	//通道和*************************************************************//
;;;1078   	for (j=0; j<M-1; j++)		
000016  2500              MOVS     r5,#0
000018  e01e              B        |L4.88|
                  |L4.26|
;;;1079   	{
;;;1080   		for (p=0; p<M-j-1; p++)
00001a  2400              MOVS     r4,#0
00001c  e016              B        |L4.76|
                  |L4.30|
;;;1081   		{
;;;1082   			if (copy_6[p] > copy_6[p+1])
00001e  a801              ADD      r0,sp,#4
000020  f9301014          LDRSH    r1,[r0,r4,LSL #1]
000024  aa01              ADD      r2,sp,#4
000026  1c60              ADDS     r0,r4,#1
000028  f9320010          LDRSH    r0,[r2,r0,LSL #1]
00002c  4281              CMP      r1,r0
00002e  dd0b              BLE      |L4.72|
;;;1083   			{
;;;1084   				temp_lb = copy_6[p];
000030  a801              ADD      r0,sp,#4
000032  f9306014          LDRSH    r6,[r0,r4,LSL #1]
;;;1085   				copy_6[p] = copy_6[p+1];
000036  a901              ADD      r1,sp,#4
000038  1c60              ADDS     r0,r4,#1
00003a  f8310010          LDRH     r0,[r1,r0,LSL #1]
00003e  f8210014          STRH     r0,[r1,r4,LSL #1]
;;;1086   				copy_6[p+1] = temp_lb;
000042  1c60              ADDS     r0,r4,#1
000044  f8216010          STRH     r6,[r1,r0,LSL #1]
                  |L4.72|
000048  1c60              ADDS     r0,r4,#1              ;1080
00004a  b2c4              UXTB     r4,r0                 ;1080
                  |L4.76|
00004c  f1c50008          RSB      r0,r5,#8              ;1080
000050  42a0              CMP      r0,r4                 ;1080
000052  dce4              BGT      |L4.30|
000054  1c68              ADDS     r0,r5,#1              ;1078
000056  b2c5              UXTB     r5,r0                 ;1078
                  |L4.88|
000058  2d08              CMP      r5,#8                 ;1078
00005a  dbde              BLT      |L4.26|
;;;1087   			}
;;;1088   		}
;;;1089   	}
;;;1090   	
;;;1091   	
;;;1092   	sum_lb = copy_6[(M-1)/2];
00005c  f8bd000c          LDRH     r0,[sp,#0xc]
000060  4902              LDR      r1,|L4.108|
000062  8008              STRH     r0,[r1,#0]
;;;1093   	
;;;1094   	
;;;1095   	
;;;1096   }
000064  b006              ADD      sp,sp,#0x18
000066  bd70              POP      {r4-r6,pc}
;;;1097   
                          ENDP

                  |L4.104|
                          DCD      value_buf6
                  |L4.108|
                          DCD      sum_lb

                          AREA ||i.bartworth||, CODE, READONLY, ALIGN=2

                  bartworth PROC
;;;1097   
;;;1098   void bartworth (void)
000000  b500              PUSH     {lr}
;;;1099   {
000002  b0a9              SUB      sp,sp,#0xa4
;;;1100   	bart_count++;
000004  48fe              LDR      r0,|L5.1024|
000006  6800              LDR      r0,[r0,#0]  ; bart_count
000008  1c40              ADDS     r0,r0,#1
00000a  49fd              LDR      r1,|L5.1024|
00000c  6008              STR      r0,[r1,#0]  ; bart_count
;;;1101   	int bart_l;
;;;1102   	bart_x [bart_count_x] = sum;
00000e  48fd              LDR      r0,|L5.1028|
000010  f9b00000          LDRSH    r0,[r0,#0]  ; sum
000014  f7fffffe          BL       __aeabi_i2d
000018  4afb              LDR      r2,|L5.1032|
00001a  4bfc              LDR      r3,|L5.1036|
00001c  781b              LDRB     r3,[r3,#0]  ; bart_count_x
00001e  eb0202c3          ADD      r2,r2,r3,LSL #3
000022  c203              STM      r2!,{r0,r1}
;;;1103   	bart_count_x++;
000024  48f9              LDR      r0,|L5.1036|
000026  7800              LDRB     r0,[r0,#0]  ; bart_count_x
000028  1c40              ADDS     r0,r0,#1
00002a  49f8              LDR      r1,|L5.1036|
00002c  7008              STRB     r0,[r1,#0]
;;;1104   	
;;;1105   	if(bart_count_x == 1)
00002e  4608              MOV      r0,r1
000030  7800              LDRB     r0,[r0,#0]  ; bart_count_x
000032  2801              CMP      r0,#1
000034  d115              BNE      |L5.98|
;;;1106   	{
;;;1107   		bart_y[0] = bart_b[0] * bart_x[0];
000036  48f4              LDR      r0,|L5.1032|
000038  ed900b00          VLDR     d0,[r0,#0]
00003c  ed8d0b26          VSTR     d0,[sp,#0x98]
000040  48f3              LDR      r0,|L5.1040|
000042  ed900b00          VLDR     d0,[r0,#0]
000046  ed8d0b24          VSTR     d0,[sp,#0x90]
00004a  ed9d0b26          VLDR     d0,[sp,#0x98]
00004e  ec532b10          VMOV     r2,r3,d0
000052  ed9d0b24          VLDR     d0,[sp,#0x90]
000056  ec510b10          VMOV     r0,r1,d0
00005a  f7fffffe          BL       __aeabi_dmul
00005e  4aed              LDR      r2,|L5.1044|
000060  c203              STM      r2!,{r0,r1}
                  |L5.98|
;;;1108   		
;;;1109   	}
;;;1110   	
;;;1111   	if(bart_count_x == 2)
000062  48ea              LDR      r0,|L5.1036|
000064  7800              LDRB     r0,[r0,#0]  ; bart_count_x
000066  2802              CMP      r0,#2
000068  d15a              BNE      |L5.288|
;;;1112   	{
;;;1113   		bart_y[1] = (bart_b[0] * bart_x[1] + bart_b[1] * bart_x[0]) -    
00006a  48ea              LDR      r0,|L5.1044|
00006c  ed900b00          VLDR     d0,[r0,#0]
000070  ed8d0b22          VSTR     d0,[sp,#0x88]
000074  48e8              LDR      r0,|L5.1048|
000076  ed900b02          VLDR     d0,[r0,#8]
00007a  ed8d0b20          VSTR     d0,[sp,#0x80]
00007e  ed9d0b22          VLDR     d0,[sp,#0x88]
000082  ec532b10          VMOV     r2,r3,d0
000086  ed9d0b20          VLDR     d0,[sp,#0x80]
00008a  ec510b10          VMOV     r0,r1,d0
00008e  f7fffffe          BL       __aeabi_dmul
000092  e9cd0126          STRD     r0,r1,[sp,#0x98]
000096  48dc              LDR      r0,|L5.1032|
000098  ed900b00          VLDR     d0,[r0,#0]
00009c  ed8d0b1e          VSTR     d0,[sp,#0x78]
0000a0  48db              LDR      r0,|L5.1040|
0000a2  ed900b02          VLDR     d0,[r0,#8]
0000a6  ed8d0b1c          VSTR     d0,[sp,#0x70]
0000aa  ed9d0b1e          VLDR     d0,[sp,#0x78]
0000ae  ec532b10          VMOV     r2,r3,d0
0000b2  ed9d0b1c          VLDR     d0,[sp,#0x70]
0000b6  ec510b10          VMOV     r0,r1,d0
0000ba  f7fffffe          BL       __aeabi_dmul
0000be  e9cd0122          STRD     r0,r1,[sp,#0x88]
0000c2  48d1              LDR      r0,|L5.1032|
0000c4  ed900b02          VLDR     d0,[r0,#8]
0000c8  ed8d0b1e          VSTR     d0,[sp,#0x78]
0000cc  48d0              LDR      r0,|L5.1040|
0000ce  ed900b00          VLDR     d0,[r0,#0]
0000d2  ed8d0b1c          VSTR     d0,[sp,#0x70]
0000d6  ed9d0b1e          VLDR     d0,[sp,#0x78]
0000da  ec532b10          VMOV     r2,r3,d0
0000de  ed9d0b1c          VLDR     d0,[sp,#0x70]
0000e2  ec510b10          VMOV     r0,r1,d0
0000e6  f7fffffe          BL       __aeabi_dmul
0000ea  e9cd0120          STRD     r0,r1,[sp,#0x80]
0000ee  ed9d0b22          VLDR     d0,[sp,#0x88]
0000f2  ec532b10          VMOV     r2,r3,d0
0000f6  ed9d0b20          VLDR     d0,[sp,#0x80]
0000fa  ec510b10          VMOV     r0,r1,d0
0000fe  f7fffffe          BL       __aeabi_dadd
000102  e9cd0124          STRD     r0,r1,[sp,#0x90]
000106  ed9d0b26          VLDR     d0,[sp,#0x98]
00010a  ec532b10          VMOV     r2,r3,d0
00010e  ed9d0b24          VLDR     d0,[sp,#0x90]
000112  ec510b10          VMOV     r0,r1,d0
000116  f7fffffe          BL       __aeabi_dsub
00011a  4abe              LDR      r2,|L5.1044|
00011c  e9c20102          STRD     r0,r1,[r2,#8]
                  |L5.288|
;;;1114   		            (bart_a[1] * bart_y[0]);
;;;1115   		
;;;1116   	}
;;;1117   	
;;;1118   	if(bart_count_x == 3)
000120  48ba              LDR      r0,|L5.1036|
000122  7800              LDRB     r0,[r0,#0]  ; bart_count_x
000124  2803              CMP      r0,#3
000126  d17c              BNE      |L5.546|
;;;1119   	{
;;;1120   		bart_y[2] = (bart_b[0] * bart_x[2] + bart_b[1] * bart_x[1] + bart_b[2] * bart_x[0]) - 
000128  48ba              LDR      r0,|L5.1044|
00012a  ed900b00          VLDR     d0,[r0,#0]
00012e  ed8d0b1e          VSTR     d0,[sp,#0x78]
000132  48b9              LDR      r0,|L5.1048|
000134  ed900b04          VLDR     d0,[r0,#0x10]
000138  ed8d0b1c          VSTR     d0,[sp,#0x70]
00013c  ed9d0b1e          VLDR     d0,[sp,#0x78]
000140  ec532b10          VMOV     r2,r3,d0
000144  ed9d0b1c          VLDR     d0,[sp,#0x70]
000148  ec510b10          VMOV     r0,r1,d0
00014c  f7fffffe          BL       __aeabi_dmul
000150  e9cd0122          STRD     r0,r1,[sp,#0x88]
000154  48af              LDR      r0,|L5.1044|
000156  ed900b02          VLDR     d0,[r0,#8]
00015a  ed8d0b1e          VSTR     d0,[sp,#0x78]
00015e  48ae              LDR      r0,|L5.1048|
000160  ed900b02          VLDR     d0,[r0,#8]
000164  ed8d0b1c          VSTR     d0,[sp,#0x70]
000168  ed9d0b1e          VLDR     d0,[sp,#0x78]
00016c  ec532b10          VMOV     r2,r3,d0
000170  ed9d0b1c          VLDR     d0,[sp,#0x70]
000174  ec510b10          VMOV     r0,r1,d0
000178  f7fffffe          BL       __aeabi_dmul
00017c  e9cd0120          STRD     r0,r1,[sp,#0x80]
000180  ed9d0b22          VLDR     d0,[sp,#0x88]
000184  ec532b10          VMOV     r2,r3,d0
000188  ed9d0b20          VLDR     d0,[sp,#0x80]
00018c  ec510b10          VMOV     r0,r1,d0
000190  f7fffffe          BL       __aeabi_dadd
000194  e9cd0126          STRD     r0,r1,[sp,#0x98]
000198  489b              LDR      r0,|L5.1032|
00019a  ed900b00          VLDR     d0,[r0,#0]
00019e  ed8d0b1e          VSTR     d0,[sp,#0x78]
0001a2  489b              LDR      r0,|L5.1040|
0001a4  ed900b04          VLDR     d0,[r0,#0x10]
0001a8  ed8d0b1c          VSTR     d0,[sp,#0x70]
0001ac  ed9d0b1e          VLDR     d0,[sp,#0x78]
0001b0  ec532b10          VMOV     r2,r3,d0
0001b4  ed9d0b1c          VLDR     d0,[sp,#0x70]
0001b8  ec510b10          VMOV     r0,r1,d0
0001bc  f7fffffe          BL       __aeabi_dmul
0001c0  e9cd0122          STRD     r0,r1,[sp,#0x88]
0001c4  4890              LDR      r0,|L5.1032|
0001c6  ed900b02          VLDR     d0,[r0,#8]
0001ca  ed8d0b1a          VSTR     d0,[sp,#0x68]
0001ce  4890              LDR      r0,|L5.1040|
0001d0  ed900b02          VLDR     d0,[r0,#8]
0001d4  ed8d0b18          VSTR     d0,[sp,#0x60]
0001d8  ed9d0b1a          VLDR     d0,[sp,#0x68]
0001dc  ec532b10          VMOV     r2,r3,d0
0001e0  ed9d0b18          VLDR     d0,[sp,#0x60]
0001e4  ec510b10          VMOV     r0,r1,d0
0001e8  f7fffffe          BL       __aeabi_dmul
0001ec  e9cd011e          STRD     r0,r1,[sp,#0x78]
0001f0  4885              LDR      r0,|L5.1032|
0001f2  ed900b04          VLDR     d0,[r0,#0x10]
0001f6  ed8d0b1a          VSTR     d0,[sp,#0x68]
0001fa  4885              LDR      r0,|L5.1040|
0001fc  ed900b00          VLDR     d0,[r0,#0]
000200  ed8d0b18          VSTR     d0,[sp,#0x60]
000204  ed9d0b1a          VLDR     d0,[sp,#0x68]
000208  ec532b10          VMOV     r2,r3,d0
00020c  ed9d0b18          VLDR     d0,[sp,#0x60]
000210  ec510b10          VMOV     r0,r1,d0
000214  f7fffffe          BL       __aeabi_dmul
000218  e9cd011c          STRD     r0,r1,[sp,#0x70]
00021c  ed9d0b1e          VLDR     d0,[sp,#0x78]
000220  e000              B        |L5.548|
                  |L5.546|
000222  e022              B        |L5.618|
                  |L5.548|
000224  ec532b10          VMOV     r2,r3,d0
000228  ed9d0b1c          VLDR     d0,[sp,#0x70]
00022c  ec510b10          VMOV     r0,r1,d0
000230  f7fffffe          BL       __aeabi_dadd
000234  e9cd0120          STRD     r0,r1,[sp,#0x80]
000238  ed9d0b22          VLDR     d0,[sp,#0x88]
00023c  ec532b10          VMOV     r2,r3,d0
000240  ed9d0b20          VLDR     d0,[sp,#0x80]
000244  ec510b10          VMOV     r0,r1,d0
000248  f7fffffe          BL       __aeabi_dadd
00024c  e9cd0124          STRD     r0,r1,[sp,#0x90]
000250  ed9d0b26          VLDR     d0,[sp,#0x98]
000254  ec532b10          VMOV     r2,r3,d0
000258  ed9d0b24          VLDR     d0,[sp,#0x90]
00025c  ec510b10          VMOV     r0,r1,d0
000260  f7fffffe          BL       __aeabi_dsub
000264  4a6b              LDR      r2,|L5.1044|
000266  e9c20104          STRD     r0,r1,[r2,#0x10]
                  |L5.618|
;;;1121   		            (bart_a[1] * bart_y[1] + bart_a[2] * bart_y[0]);
;;;1122   		
;;;1123   	}
;;;1124   	
;;;1125   	if(bart_count_x == 4)
00026a  4868              LDR      r0,|L5.1036|
00026c  7800              LDRB     r0,[r0,#0]  ; bart_count_x
00026e  2804              CMP      r0,#4
000270  d17e              BNE      |L5.880|
;;;1126   	{
;;;1127   		bart_y[3] = (bart_b[0] * bart_x[3] + bart_b[1] * bart_x[2] + bart_b[2] * bart_x[1]+ bart_b[3] * bart_x[0]) - 
000272  4868              LDR      r0,|L5.1044|
000274  ed900b00          VLDR     d0,[r0,#0]
000278  ed8d0b1e          VSTR     d0,[sp,#0x78]
00027c  4866              LDR      r0,|L5.1048|
00027e  ed900b06          VLDR     d0,[r0,#0x18]
000282  ed8d0b1c          VSTR     d0,[sp,#0x70]
000286  ed9d0b1e          VLDR     d0,[sp,#0x78]
00028a  ec532b10          VMOV     r2,r3,d0
00028e  ed9d0b1c          VLDR     d0,[sp,#0x70]
000292  ec510b10          VMOV     r0,r1,d0
000296  f7fffffe          BL       __aeabi_dmul
00029a  e9cd0122          STRD     r0,r1,[sp,#0x88]
00029e  485d              LDR      r0,|L5.1044|
0002a0  ed900b02          VLDR     d0,[r0,#8]
0002a4  ed8d0b1a          VSTR     d0,[sp,#0x68]
0002a8  485b              LDR      r0,|L5.1048|
0002aa  ed900b04          VLDR     d0,[r0,#0x10]
0002ae  ed8d0b18          VSTR     d0,[sp,#0x60]
0002b2  ed9d0b1a          VLDR     d0,[sp,#0x68]
0002b6  ec532b10          VMOV     r2,r3,d0
0002ba  ed9d0b18          VLDR     d0,[sp,#0x60]
0002be  ec510b10          VMOV     r0,r1,d0
0002c2  f7fffffe          BL       __aeabi_dmul
0002c6  e9cd011e          STRD     r0,r1,[sp,#0x78]
0002ca  4852              LDR      r0,|L5.1044|
0002cc  ed900b04          VLDR     d0,[r0,#0x10]
0002d0  ed8d0b1a          VSTR     d0,[sp,#0x68]
0002d4  4850              LDR      r0,|L5.1048|
0002d6  ed900b02          VLDR     d0,[r0,#8]
0002da  ed8d0b18          VSTR     d0,[sp,#0x60]
0002de  ed9d0b1a          VLDR     d0,[sp,#0x68]
0002e2  ec532b10          VMOV     r2,r3,d0
0002e6  ed9d0b18          VLDR     d0,[sp,#0x60]
0002ea  ec510b10          VMOV     r0,r1,d0
0002ee  f7fffffe          BL       __aeabi_dmul
0002f2  e9cd011c          STRD     r0,r1,[sp,#0x70]
0002f6  ed9d0b1e          VLDR     d0,[sp,#0x78]
0002fa  ec532b10          VMOV     r2,r3,d0
0002fe  ed9d0b1c          VLDR     d0,[sp,#0x70]
000302  ec510b10          VMOV     r0,r1,d0
000306  f7fffffe          BL       __aeabi_dadd
00030a  e9cd0120          STRD     r0,r1,[sp,#0x80]
00030e  ed9d0b22          VLDR     d0,[sp,#0x88]
000312  ec532b10          VMOV     r2,r3,d0
000316  ed9d0b20          VLDR     d0,[sp,#0x80]
00031a  ec510b10          VMOV     r0,r1,d0
00031e  f7fffffe          BL       __aeabi_dadd
000322  e9cd0126          STRD     r0,r1,[sp,#0x98]
000326  4838              LDR      r0,|L5.1032|
000328  ed900b00          VLDR     d0,[r0,#0]
00032c  ed8d0b1e          VSTR     d0,[sp,#0x78]
000330  4837              LDR      r0,|L5.1040|
000332  ed900b06          VLDR     d0,[r0,#0x18]
000336  ed8d0b1c          VSTR     d0,[sp,#0x70]
00033a  ed9d0b1e          VLDR     d0,[sp,#0x78]
00033e  ec532b10          VMOV     r2,r3,d0
000342  ed9d0b1c          VLDR     d0,[sp,#0x70]
000346  ec510b10          VMOV     r0,r1,d0
00034a  f7fffffe          BL       __aeabi_dmul
00034e  e9cd0122          STRD     r0,r1,[sp,#0x88]
000352  482d              LDR      r0,|L5.1032|
000354  ed900b02          VLDR     d0,[r0,#8]
000358  ed8d0b1a          VSTR     d0,[sp,#0x68]
00035c  482c              LDR      r0,|L5.1040|
00035e  ed900b04          VLDR     d0,[r0,#0x10]
000362  ed8d0b18          VSTR     d0,[sp,#0x60]
000366  ed9d0b1a          VLDR     d0,[sp,#0x68]
00036a  ec532b10          VMOV     r2,r3,d0
00036e  e000              B        |L5.882|
                  |L5.880|
000370  e073              B        |L5.1114|
                  |L5.882|
000372  ed9d0b18          VLDR     d0,[sp,#0x60]
000376  ec510b10          VMOV     r0,r1,d0
00037a  f7fffffe          BL       __aeabi_dmul
00037e  e9cd011e          STRD     r0,r1,[sp,#0x78]
000382  4821              LDR      r0,|L5.1032|
000384  ed900b04          VLDR     d0,[r0,#0x10]
000388  ed8d0b16          VSTR     d0,[sp,#0x58]
00038c  4820              LDR      r0,|L5.1040|
00038e  ed900b02          VLDR     d0,[r0,#8]
000392  ed8d0b14          VSTR     d0,[sp,#0x50]
000396  ed9d0b16          VLDR     d0,[sp,#0x58]
00039a  ec532b10          VMOV     r2,r3,d0
00039e  ed9d0b14          VLDR     d0,[sp,#0x50]
0003a2  ec510b10          VMOV     r0,r1,d0
0003a6  f7fffffe          BL       __aeabi_dmul
0003aa  e9cd011a          STRD     r0,r1,[sp,#0x68]
0003ae  4816              LDR      r0,|L5.1032|
0003b0  ed900b06          VLDR     d0,[r0,#0x18]
0003b4  ed8d0b16          VSTR     d0,[sp,#0x58]
0003b8  4815              LDR      r0,|L5.1040|
0003ba  ed900b00          VLDR     d0,[r0,#0]
0003be  ed8d0b14          VSTR     d0,[sp,#0x50]
0003c2  ed9d0b16          VLDR     d0,[sp,#0x58]
0003c6  ec532b10          VMOV     r2,r3,d0
0003ca  ed9d0b14          VLDR     d0,[sp,#0x50]
0003ce  ec510b10          VMOV     r0,r1,d0
0003d2  f7fffffe          BL       __aeabi_dmul
0003d6  e9cd0118          STRD     r0,r1,[sp,#0x60]
0003da  ed9d0b1a          VLDR     d0,[sp,#0x68]
0003de  ec532b10          VMOV     r2,r3,d0
0003e2  ed9d0b18          VLDR     d0,[sp,#0x60]
0003e6  ec510b10          VMOV     r0,r1,d0
0003ea  f7fffffe          BL       __aeabi_dadd
0003ee  e9cd011c          STRD     r0,r1,[sp,#0x70]
0003f2  ed9d0b1e          VLDR     d0,[sp,#0x78]
0003f6  ec532b10          VMOV     r2,r3,d0
0003fa  ed9d0b1c          VLDR     d0,[sp,#0x70]
0003fe  e00d              B        |L5.1052|
                  |L5.1024|
                          DCD      bart_count
                  |L5.1028|
                          DCD      ||sum||
                  |L5.1032|
                          DCD      bart_x
                  |L5.1036|
                          DCD      bart_count_x
                  |L5.1040|
                          DCD      bart_b
                  |L5.1044|
                          DCD      bart_y
                  |L5.1048|
                          DCD      bart_a
                  |L5.1052|
00041c  ec510b10          VMOV     r0,r1,d0
000420  f7fffffe          BL       __aeabi_dadd
000424  e9cd0120          STRD     r0,r1,[sp,#0x80]
000428  ed9d0b22          VLDR     d0,[sp,#0x88]
00042c  ec532b10          VMOV     r2,r3,d0
000430  ed9d0b20          VLDR     d0,[sp,#0x80]
000434  ec510b10          VMOV     r0,r1,d0
000438  f7fffffe          BL       __aeabi_dadd
00043c  e9cd0124          STRD     r0,r1,[sp,#0x90]
000440  ed9d0b26          VLDR     d0,[sp,#0x98]
000444  ec532b10          VMOV     r2,r3,d0
000448  ed9d0b24          VLDR     d0,[sp,#0x90]
00044c  ec510b10          VMOV     r0,r1,d0
000450  f7fffffe          BL       __aeabi_dsub
000454  4afe              LDR      r2,|L5.2128|
000456  e9c20106          STRD     r0,r1,[r2,#0x18]
                  |L5.1114|
;;;1128   		            (bart_a[1] * bart_y[2]+bart_a[2] * bart_y[1]+bart_a[3] * bart_y[0]);
;;;1129   
;;;1130   	}
;;;1131   	
;;;1132   	if(bart_count_x == 5)
00045a  48fe              LDR      r0,|L5.2132|
00045c  7800              LDRB     r0,[r0,#0]  ; bart_count_x
00045e  2805              CMP      r0,#5
000460  d17d              BNE      |L5.1374|
;;;1133   	{
;;;1134   		bart_y[4] = (bart_b[0] * bart_x[4] + bart_b[1] * bart_x[3] + bart_b[2] * bart_x[2]+ bart_b[3] * bart_x[1]+ bart_b[4] * bart_x[0])- 
000462  48fb              LDR      r0,|L5.2128|
000464  ed900b00          VLDR     d0,[r0,#0]
000468  ed8d0b1e          VSTR     d0,[sp,#0x78]
00046c  48fa              LDR      r0,|L5.2136|
00046e  ed900b08          VLDR     d0,[r0,#0x20]
000472  ed8d0b1c          VSTR     d0,[sp,#0x70]
000476  ed9d0b1e          VLDR     d0,[sp,#0x78]
00047a  ec532b10          VMOV     r2,r3,d0
00047e  ed9d0b1c          VLDR     d0,[sp,#0x70]
000482  ec510b10          VMOV     r0,r1,d0
000486  f7fffffe          BL       __aeabi_dmul
00048a  e9cd0122          STRD     r0,r1,[sp,#0x88]
00048e  48f0              LDR      r0,|L5.2128|
000490  ed900b02          VLDR     d0,[r0,#8]
000494  ed8d0b1a          VSTR     d0,[sp,#0x68]
000498  48ef              LDR      r0,|L5.2136|
00049a  ed900b06          VLDR     d0,[r0,#0x18]
00049e  ed8d0b18          VSTR     d0,[sp,#0x60]
0004a2  ed9d0b1a          VLDR     d0,[sp,#0x68]
0004a6  ec532b10          VMOV     r2,r3,d0
0004aa  ed9d0b18          VLDR     d0,[sp,#0x60]
0004ae  ec510b10          VMOV     r0,r1,d0
0004b2  f7fffffe          BL       __aeabi_dmul
0004b6  e9cd011e          STRD     r0,r1,[sp,#0x78]
0004ba  48e5              LDR      r0,|L5.2128|
0004bc  ed900b04          VLDR     d0,[r0,#0x10]
0004c0  ed8d0b16          VSTR     d0,[sp,#0x58]
0004c4  48e4              LDR      r0,|L5.2136|
0004c6  ed900b04          VLDR     d0,[r0,#0x10]
0004ca  ed8d0b14          VSTR     d0,[sp,#0x50]
0004ce  ed9d0b16          VLDR     d0,[sp,#0x58]
0004d2  ec532b10          VMOV     r2,r3,d0
0004d6  ed9d0b14          VLDR     d0,[sp,#0x50]
0004da  ec510b10          VMOV     r0,r1,d0
0004de  f7fffffe          BL       __aeabi_dmul
0004e2  e9cd011a          STRD     r0,r1,[sp,#0x68]
0004e6  48da              LDR      r0,|L5.2128|
0004e8  ed900b06          VLDR     d0,[r0,#0x18]
0004ec  ed8d0b16          VSTR     d0,[sp,#0x58]
0004f0  48d9              LDR      r0,|L5.2136|
0004f2  ed900b02          VLDR     d0,[r0,#8]
0004f6  ed8d0b14          VSTR     d0,[sp,#0x50]
0004fa  ed9d0b16          VLDR     d0,[sp,#0x58]
0004fe  ec532b10          VMOV     r2,r3,d0
000502  ed9d0b14          VLDR     d0,[sp,#0x50]
000506  ec510b10          VMOV     r0,r1,d0
00050a  f7fffffe          BL       __aeabi_dmul
00050e  e9cd0118          STRD     r0,r1,[sp,#0x60]
000512  ed9d0b1a          VLDR     d0,[sp,#0x68]
000516  ec532b10          VMOV     r2,r3,d0
00051a  ed9d0b18          VLDR     d0,[sp,#0x60]
00051e  ec510b10          VMOV     r0,r1,d0
000522  f7fffffe          BL       __aeabi_dadd
000526  e9cd011c          STRD     r0,r1,[sp,#0x70]
00052a  ed9d0b1e          VLDR     d0,[sp,#0x78]
00052e  ec532b10          VMOV     r2,r3,d0
000532  ed9d0b1c          VLDR     d0,[sp,#0x70]
000536  ec510b10          VMOV     r0,r1,d0
00053a  f7fffffe          BL       __aeabi_dadd
00053e  e9cd0120          STRD     r0,r1,[sp,#0x80]
000542  ed9d0b22          VLDR     d0,[sp,#0x88]
000546  ec532b10          VMOV     r2,r3,d0
00054a  ed9d0b20          VLDR     d0,[sp,#0x80]
00054e  ec510b10          VMOV     r0,r1,d0
000552  f7fffffe          BL       __aeabi_dadd
000556  e9cd0126          STRD     r0,r1,[sp,#0x98]
00055a  48c0              LDR      r0,|L5.2140|
00055c  e000              B        |L5.1376|
                  |L5.1374|
00055e  e0a9              B        |L5.1716|
                  |L5.1376|
000560  ed900b00          VLDR     d0,[r0,#0]
000564  ed8d0b1e          VSTR     d0,[sp,#0x78]
000568  48bd              LDR      r0,|L5.2144|
00056a  ed900b08          VLDR     d0,[r0,#0x20]
00056e  ed8d0b1c          VSTR     d0,[sp,#0x70]
000572  ed9d0b1e          VLDR     d0,[sp,#0x78]
000576  ec532b10          VMOV     r2,r3,d0
00057a  ed9d0b1c          VLDR     d0,[sp,#0x70]
00057e  ec510b10          VMOV     r0,r1,d0
000582  f7fffffe          BL       __aeabi_dmul
000586  e9cd0122          STRD     r0,r1,[sp,#0x88]
00058a  48b4              LDR      r0,|L5.2140|
00058c  ed900b02          VLDR     d0,[r0,#8]
000590  ed8d0b1a          VSTR     d0,[sp,#0x68]
000594  48b2              LDR      r0,|L5.2144|
000596  ed900b06          VLDR     d0,[r0,#0x18]
00059a  ed8d0b18          VSTR     d0,[sp,#0x60]
00059e  ed9d0b1a          VLDR     d0,[sp,#0x68]
0005a2  ec532b10          VMOV     r2,r3,d0
0005a6  ed9d0b18          VLDR     d0,[sp,#0x60]
0005aa  ec510b10          VMOV     r0,r1,d0
0005ae  f7fffffe          BL       __aeabi_dmul
0005b2  e9cd011e          STRD     r0,r1,[sp,#0x78]
0005b6  48a9              LDR      r0,|L5.2140|
0005b8  ed900b04          VLDR     d0,[r0,#0x10]
0005bc  ed8d0b16          VSTR     d0,[sp,#0x58]
0005c0  48a7              LDR      r0,|L5.2144|
0005c2  ed900b04          VLDR     d0,[r0,#0x10]
0005c6  ed8d0b14          VSTR     d0,[sp,#0x50]
0005ca  ed9d0b16          VLDR     d0,[sp,#0x58]
0005ce  ec532b10          VMOV     r2,r3,d0
0005d2  ed9d0b14          VLDR     d0,[sp,#0x50]
0005d6  ec510b10          VMOV     r0,r1,d0
0005da  f7fffffe          BL       __aeabi_dmul
0005de  e9cd011a          STRD     r0,r1,[sp,#0x68]
0005e2  489e              LDR      r0,|L5.2140|
0005e4  ed900b06          VLDR     d0,[r0,#0x18]
0005e8  ed8d0b12          VSTR     d0,[sp,#0x48]
0005ec  489c              LDR      r0,|L5.2144|
0005ee  ed900b02          VLDR     d0,[r0,#8]
0005f2  ed8d0b10          VSTR     d0,[sp,#0x40]
0005f6  ed9d0b12          VLDR     d0,[sp,#0x48]
0005fa  ec532b10          VMOV     r2,r3,d0
0005fe  ed9d0b10          VLDR     d0,[sp,#0x40]
000602  ec510b10          VMOV     r0,r1,d0
000606  f7fffffe          BL       __aeabi_dmul
00060a  e9cd0116          STRD     r0,r1,[sp,#0x58]
00060e  4893              LDR      r0,|L5.2140|
000610  ed900b08          VLDR     d0,[r0,#0x20]
000614  ed8d0b12          VSTR     d0,[sp,#0x48]
000618  4891              LDR      r0,|L5.2144|
00061a  ed900b00          VLDR     d0,[r0,#0]
00061e  ed8d0b10          VSTR     d0,[sp,#0x40]
000622  ed9d0b12          VLDR     d0,[sp,#0x48]
000626  ec532b10          VMOV     r2,r3,d0
00062a  ed9d0b10          VLDR     d0,[sp,#0x40]
00062e  ec510b10          VMOV     r0,r1,d0
000632  f7fffffe          BL       __aeabi_dmul
000636  e9cd0114          STRD     r0,r1,[sp,#0x50]
00063a  ed9d0b16          VLDR     d0,[sp,#0x58]
00063e  ec532b10          VMOV     r2,r3,d0
000642  ed9d0b14          VLDR     d0,[sp,#0x50]
000646  ec510b10          VMOV     r0,r1,d0
00064a  f7fffffe          BL       __aeabi_dadd
00064e  e9cd0118          STRD     r0,r1,[sp,#0x60]
000652  ed9d0b1a          VLDR     d0,[sp,#0x68]
000656  ec532b10          VMOV     r2,r3,d0
00065a  ed9d0b18          VLDR     d0,[sp,#0x60]
00065e  ec510b10          VMOV     r0,r1,d0
000662  f7fffffe          BL       __aeabi_dadd
000666  e9cd011c          STRD     r0,r1,[sp,#0x70]
00066a  ed9d0b1e          VLDR     d0,[sp,#0x78]
00066e  ec532b10          VMOV     r2,r3,d0
000672  ed9d0b1c          VLDR     d0,[sp,#0x70]
000676  ec510b10          VMOV     r0,r1,d0
00067a  f7fffffe          BL       __aeabi_dadd
00067e  e9cd0120          STRD     r0,r1,[sp,#0x80]
000682  ed9d0b22          VLDR     d0,[sp,#0x88]
000686  ec532b10          VMOV     r2,r3,d0
00068a  ed9d0b20          VLDR     d0,[sp,#0x80]
00068e  ec510b10          VMOV     r0,r1,d0
000692  f7fffffe          BL       __aeabi_dadd
000696  e9cd0124          STRD     r0,r1,[sp,#0x90]
00069a  ed9d0b26          VLDR     d0,[sp,#0x98]
00069e  ec532b10          VMOV     r2,r3,d0
0006a2  ed9d0b24          VLDR     d0,[sp,#0x90]
0006a6  ec510b10          VMOV     r0,r1,d0
0006aa  f7fffffe          BL       __aeabi_dsub
0006ae  4a68              LDR      r2,|L5.2128|
0006b0  e9c20108          STRD     r0,r1,[r2,#0x20]
                  |L5.1716|
;;;1135   		            (bart_a[1] * bart_y[3] + bart_a[2] * bart_y[2] + bart_a[3] * bart_y[1]+ bart_a[4] * bart_y[0]);
;;;1136   
;;;1137   	}		
;;;1138   	if(bart_count_x == 6)
0006b4  4867              LDR      r0,|L5.2132|
0006b6  7800              LDRB     r0,[r0,#0]  ; bart_count_x
0006b8  2806              CMP      r0,#6
0006ba  d17c              BNE      |L5.1974|
;;;1139   	{
;;;1140   		bart_y[5] = (bart_b[0] * bart_x[5] + bart_b[1] * bart_x[4] + bart_b[2] * bart_x[3]+ bart_b[3] * bart_x[2]+ bart_b[4] * bart_x[1]+
0006bc  4864              LDR      r0,|L5.2128|
0006be  ed900b00          VLDR     d0,[r0,#0]
0006c2  ed8d0b1e          VSTR     d0,[sp,#0x78]
0006c6  4864              LDR      r0,|L5.2136|
0006c8  ed900b0a          VLDR     d0,[r0,#0x28]
0006cc  ed8d0b1c          VSTR     d0,[sp,#0x70]
0006d0  ed9d0b1e          VLDR     d0,[sp,#0x78]
0006d4  ec532b10          VMOV     r2,r3,d0
0006d8  ed9d0b1c          VLDR     d0,[sp,#0x70]
0006dc  ec510b10          VMOV     r0,r1,d0
0006e0  f7fffffe          BL       __aeabi_dmul
0006e4  e9cd0122          STRD     r0,r1,[sp,#0x88]
0006e8  4859              LDR      r0,|L5.2128|
0006ea  ed900b02          VLDR     d0,[r0,#8]
0006ee  ed8d0b1a          VSTR     d0,[sp,#0x68]
0006f2  4859              LDR      r0,|L5.2136|
0006f4  ed900b08          VLDR     d0,[r0,#0x20]
0006f8  ed8d0b18          VSTR     d0,[sp,#0x60]
0006fc  ed9d0b1a          VLDR     d0,[sp,#0x68]
000700  ec532b10          VMOV     r2,r3,d0
000704  ed9d0b18          VLDR     d0,[sp,#0x60]
000708  ec510b10          VMOV     r0,r1,d0
00070c  f7fffffe          BL       __aeabi_dmul
000710  e9cd011e          STRD     r0,r1,[sp,#0x78]
000714  484e              LDR      r0,|L5.2128|
000716  ed900b04          VLDR     d0,[r0,#0x10]
00071a  ed8d0b16          VSTR     d0,[sp,#0x58]
00071e  484e              LDR      r0,|L5.2136|
000720  ed900b06          VLDR     d0,[r0,#0x18]
000724  ed8d0b14          VSTR     d0,[sp,#0x50]
000728  ed9d0b16          VLDR     d0,[sp,#0x58]
00072c  ec532b10          VMOV     r2,r3,d0
000730  ed9d0b14          VLDR     d0,[sp,#0x50]
000734  ec510b10          VMOV     r0,r1,d0
000738  f7fffffe          BL       __aeabi_dmul
00073c  e9cd011a          STRD     r0,r1,[sp,#0x68]
000740  4843              LDR      r0,|L5.2128|
000742  ed900b06          VLDR     d0,[r0,#0x18]
000746  ed8d0b12          VSTR     d0,[sp,#0x48]
00074a  4843              LDR      r0,|L5.2136|
00074c  ed900b04          VLDR     d0,[r0,#0x10]
000750  ed8d0b10          VSTR     d0,[sp,#0x40]
000754  ed9d0b12          VLDR     d0,[sp,#0x48]
000758  ec532b10          VMOV     r2,r3,d0
00075c  ed9d0b10          VLDR     d0,[sp,#0x40]
000760  ec510b10          VMOV     r0,r1,d0
000764  f7fffffe          BL       __aeabi_dmul
000768  e9cd0116          STRD     r0,r1,[sp,#0x58]
00076c  4838              LDR      r0,|L5.2128|
00076e  ed900b08          VLDR     d0,[r0,#0x20]
000772  ed8d0b12          VSTR     d0,[sp,#0x48]
000776  4838              LDR      r0,|L5.2136|
000778  ed900b02          VLDR     d0,[r0,#8]
00077c  ed8d0b10          VSTR     d0,[sp,#0x40]
000780  ed9d0b12          VLDR     d0,[sp,#0x48]
000784  ec532b10          VMOV     r2,r3,d0
000788  ed9d0b10          VLDR     d0,[sp,#0x40]
00078c  ec510b10          VMOV     r0,r1,d0
000790  f7fffffe          BL       __aeabi_dmul
000794  e9cd0114          STRD     r0,r1,[sp,#0x50]
000798  ed9d0b16          VLDR     d0,[sp,#0x58]
00079c  ec532b10          VMOV     r2,r3,d0
0007a0  ed9d0b14          VLDR     d0,[sp,#0x50]
0007a4  ec510b10          VMOV     r0,r1,d0
0007a8  f7fffffe          BL       __aeabi_dadd
0007ac  e9cd0118          STRD     r0,r1,[sp,#0x60]
0007b0  ed9d0b1a          VLDR     d0,[sp,#0x68]
0007b4  e000              B        |L5.1976|
                  |L5.1974|
0007b6  e0fa              B        |L5.2478|
                  |L5.1976|
0007b8  ec532b10          VMOV     r2,r3,d0
0007bc  ed9d0b18          VLDR     d0,[sp,#0x60]
0007c0  ec510b10          VMOV     r0,r1,d0
0007c4  f7fffffe          BL       __aeabi_dadd
0007c8  e9cd011c          STRD     r0,r1,[sp,#0x70]
0007cc  ed9d0b1e          VLDR     d0,[sp,#0x78]
0007d0  ec532b10          VMOV     r2,r3,d0
0007d4  ed9d0b1c          VLDR     d0,[sp,#0x70]
0007d8  ec510b10          VMOV     r0,r1,d0
0007dc  f7fffffe          BL       __aeabi_dadd
0007e0  e9cd0120          STRD     r0,r1,[sp,#0x80]
0007e4  ed9d0b22          VLDR     d0,[sp,#0x88]
0007e8  ec532b10          VMOV     r2,r3,d0
0007ec  ed9d0b20          VLDR     d0,[sp,#0x80]
0007f0  ec510b10          VMOV     r0,r1,d0
0007f4  f7fffffe          BL       __aeabi_dadd
0007f8  e9cd0126          STRD     r0,r1,[sp,#0x98]
0007fc  4817              LDR      r0,|L5.2140|
0007fe  ed900b00          VLDR     d0,[r0,#0]
000802  ed8d0b1e          VSTR     d0,[sp,#0x78]
000806  4816              LDR      r0,|L5.2144|
000808  ed900b0a          VLDR     d0,[r0,#0x28]
00080c  ed8d0b1c          VSTR     d0,[sp,#0x70]
000810  ed9d0b1e          VLDR     d0,[sp,#0x78]
000814  ec532b10          VMOV     r2,r3,d0
000818  ed9d0b1c          VLDR     d0,[sp,#0x70]
00081c  ec510b10          VMOV     r0,r1,d0
000820  f7fffffe          BL       __aeabi_dmul
000824  e9cd0122          STRD     r0,r1,[sp,#0x88]
000828  480c              LDR      r0,|L5.2140|
00082a  ed900b02          VLDR     d0,[r0,#8]
00082e  ed8d0b1a          VSTR     d0,[sp,#0x68]
000832  480b              LDR      r0,|L5.2144|
000834  ed900b08          VLDR     d0,[r0,#0x20]
000838  ed8d0b18          VSTR     d0,[sp,#0x60]
00083c  ed9d0b1a          VLDR     d0,[sp,#0x68]
000840  ec532b10          VMOV     r2,r3,d0
000844  ed9d0b18          VLDR     d0,[sp,#0x60]
000848  ec510b10          VMOV     r0,r1,d0
00084c  e00a              B        |L5.2148|
00084e  0000              DCW      0x0000
                  |L5.2128|
                          DCD      bart_y
                  |L5.2132|
                          DCD      bart_count_x
                  |L5.2136|
                          DCD      bart_a
                  |L5.2140|
                          DCD      bart_x
                  |L5.2144|
                          DCD      bart_b
                  |L5.2148|
000864  f7fffffe          BL       __aeabi_dmul
000868  e9cd011e          STRD     r0,r1,[sp,#0x78]
00086c  48fe              LDR      r0,|L5.3176|
00086e  ed900b04          VLDR     d0,[r0,#0x10]
000872  ed8d0b16          VSTR     d0,[sp,#0x58]
000876  48fd              LDR      r0,|L5.3180|
000878  ed900b06          VLDR     d0,[r0,#0x18]
00087c  ed8d0b14          VSTR     d0,[sp,#0x50]
000880  ed9d0b16          VLDR     d0,[sp,#0x58]
000884  ec532b10          VMOV     r2,r3,d0
000888  ed9d0b14          VLDR     d0,[sp,#0x50]
00088c  ec510b10          VMOV     r0,r1,d0
000890  f7fffffe          BL       __aeabi_dmul
000894  e9cd011a          STRD     r0,r1,[sp,#0x68]
000898  48f3              LDR      r0,|L5.3176|
00089a  ed900b06          VLDR     d0,[r0,#0x18]
00089e  ed8d0b12          VSTR     d0,[sp,#0x48]
0008a2  48f2              LDR      r0,|L5.3180|
0008a4  ed900b04          VLDR     d0,[r0,#0x10]
0008a8  ed8d0b10          VSTR     d0,[sp,#0x40]
0008ac  ed9d0b12          VLDR     d0,[sp,#0x48]
0008b0  ec532b10          VMOV     r2,r3,d0
0008b4  ed9d0b10          VLDR     d0,[sp,#0x40]
0008b8  ec510b10          VMOV     r0,r1,d0
0008bc  f7fffffe          BL       __aeabi_dmul
0008c0  e9cd0116          STRD     r0,r1,[sp,#0x58]
0008c4  48e8              LDR      r0,|L5.3176|
0008c6  ed900b08          VLDR     d0,[r0,#0x20]
0008ca  ed8d0b0e          VSTR     d0,[sp,#0x38]
0008ce  48e7              LDR      r0,|L5.3180|
0008d0  ed900b02          VLDR     d0,[r0,#8]
0008d4  ed8d0b0c          VSTR     d0,[sp,#0x30]
0008d8  ed9d0b0e          VLDR     d0,[sp,#0x38]
0008dc  ec532b10          VMOV     r2,r3,d0
0008e0  ed9d0b0c          VLDR     d0,[sp,#0x30]
0008e4  ec510b10          VMOV     r0,r1,d0
0008e8  f7fffffe          BL       __aeabi_dmul
0008ec  e9cd0112          STRD     r0,r1,[sp,#0x48]
0008f0  48dd              LDR      r0,|L5.3176|
0008f2  ed900b0a          VLDR     d0,[r0,#0x28]
0008f6  ed8d0b0e          VSTR     d0,[sp,#0x38]
0008fa  48dc              LDR      r0,|L5.3180|
0008fc  ed900b00          VLDR     d0,[r0,#0]
000900  ed8d0b0c          VSTR     d0,[sp,#0x30]
000904  ed9d0b0e          VLDR     d0,[sp,#0x38]
000908  ec532b10          VMOV     r2,r3,d0
00090c  ed9d0b0c          VLDR     d0,[sp,#0x30]
000910  ec510b10          VMOV     r0,r1,d0
000914  f7fffffe          BL       __aeabi_dmul
000918  e9cd0110          STRD     r0,r1,[sp,#0x40]
00091c  ed9d0b12          VLDR     d0,[sp,#0x48]
000920  ec532b10          VMOV     r2,r3,d0
000924  ed9d0b10          VLDR     d0,[sp,#0x40]
000928  ec510b10          VMOV     r0,r1,d0
00092c  f7fffffe          BL       __aeabi_dadd
000930  e9cd0114          STRD     r0,r1,[sp,#0x50]
000934  ed9d0b16          VLDR     d0,[sp,#0x58]
000938  ec532b10          VMOV     r2,r3,d0
00093c  ed9d0b14          VLDR     d0,[sp,#0x50]
000940  ec510b10          VMOV     r0,r1,d0
000944  f7fffffe          BL       __aeabi_dadd
000948  e9cd0118          STRD     r0,r1,[sp,#0x60]
00094c  ed9d0b1a          VLDR     d0,[sp,#0x68]
000950  ec532b10          VMOV     r2,r3,d0
000954  ed9d0b18          VLDR     d0,[sp,#0x60]
000958  ec510b10          VMOV     r0,r1,d0
00095c  f7fffffe          BL       __aeabi_dadd
000960  e9cd011c          STRD     r0,r1,[sp,#0x70]
000964  ed9d0b1e          VLDR     d0,[sp,#0x78]
000968  ec532b10          VMOV     r2,r3,d0
00096c  ed9d0b1c          VLDR     d0,[sp,#0x70]
000970  ec510b10          VMOV     r0,r1,d0
000974  f7fffffe          BL       __aeabi_dadd
000978  e9cd0120          STRD     r0,r1,[sp,#0x80]
00097c  ed9d0b22          VLDR     d0,[sp,#0x88]
000980  ec532b10          VMOV     r2,r3,d0
000984  ed9d0b20          VLDR     d0,[sp,#0x80]
000988  ec510b10          VMOV     r0,r1,d0
00098c  f7fffffe          BL       __aeabi_dadd
000990  e9cd0124          STRD     r0,r1,[sp,#0x90]
000994  ed9d0b26          VLDR     d0,[sp,#0x98]
000998  ec532b10          VMOV     r2,r3,d0
00099c  ed9d0b24          VLDR     d0,[sp,#0x90]
0009a0  ec510b10          VMOV     r0,r1,d0
0009a4  f7fffffe          BL       __aeabi_dsub
0009a8  4ab1              LDR      r2,|L5.3184|
0009aa  e9c2010a          STRD     r0,r1,[r2,#0x28]
                  |L5.2478|
;;;1141   		             bart_b[5] * bart_x[0])- 
;;;1142   		            (bart_a[1] * bart_y[4] + bart_a[2] * bart_y[3] + bart_a[3] * bart_y[2]+ bart_a[4] * bart_y[1] +
;;;1143   		             bart_a[5] * bart_y[0]);
;;;1144   
;;;1145   	}		
;;;1146   	if(bart_count_x == 7)
0009ae  48b1              LDR      r0,|L5.3188|
0009b0  7800              LDRB     r0,[r0,#0]  ; bart_count_x
0009b2  2807              CMP      r0,#7
0009b4  d17e              BNE      |L5.2740|
;;;1147   	{
;;;1148   		bart_y[6] = (bart_b[0] * bart_x[6] + bart_b[1] * bart_x[5] + bart_b[2] * bart_x[4]+ bart_b[3] * bart_x[3]+ bart_b[4] * bart_x[2]+
0009b6  48ae              LDR      r0,|L5.3184|
0009b8  ed900b00          VLDR     d0,[r0,#0]
0009bc  ed8d0b1e          VSTR     d0,[sp,#0x78]
0009c0  48ad              LDR      r0,|L5.3192|
0009c2  ed900b0c          VLDR     d0,[r0,#0x30]
0009c6  ed8d0b1c          VSTR     d0,[sp,#0x70]
0009ca  ed9d0b1e          VLDR     d0,[sp,#0x78]
0009ce  ec532b10          VMOV     r2,r3,d0
0009d2  ed9d0b1c          VLDR     d0,[sp,#0x70]
0009d6  ec510b10          VMOV     r0,r1,d0
0009da  f7fffffe          BL       __aeabi_dmul
0009de  e9cd0122          STRD     r0,r1,[sp,#0x88]
0009e2  48a3              LDR      r0,|L5.3184|
0009e4  ed900b02          VLDR     d0,[r0,#8]
0009e8  ed8d0b1a          VSTR     d0,[sp,#0x68]
0009ec  48a2              LDR      r0,|L5.3192|
0009ee  ed900b0a          VLDR     d0,[r0,#0x28]
0009f2  ed8d0b18          VSTR     d0,[sp,#0x60]
0009f6  ed9d0b1a          VLDR     d0,[sp,#0x68]
0009fa  ec532b10          VMOV     r2,r3,d0
0009fe  ed9d0b18          VLDR     d0,[sp,#0x60]
000a02  ec510b10          VMOV     r0,r1,d0
000a06  f7fffffe          BL       __aeabi_dmul
000a0a  e9cd011e          STRD     r0,r1,[sp,#0x78]
000a0e  4898              LDR      r0,|L5.3184|
000a10  ed900b04          VLDR     d0,[r0,#0x10]
000a14  ed8d0b16          VSTR     d0,[sp,#0x58]
000a18  4897              LDR      r0,|L5.3192|
000a1a  ed900b08          VLDR     d0,[r0,#0x20]
000a1e  ed8d0b14          VSTR     d0,[sp,#0x50]
000a22  ed9d0b16          VLDR     d0,[sp,#0x58]
000a26  ec532b10          VMOV     r2,r3,d0
000a2a  ed9d0b14          VLDR     d0,[sp,#0x50]
000a2e  ec510b10          VMOV     r0,r1,d0
000a32  f7fffffe          BL       __aeabi_dmul
000a36  e9cd011a          STRD     r0,r1,[sp,#0x68]
000a3a  488d              LDR      r0,|L5.3184|
000a3c  ed900b06          VLDR     d0,[r0,#0x18]
000a40  ed8d0b12          VSTR     d0,[sp,#0x48]
000a44  488c              LDR      r0,|L5.3192|
000a46  ed900b06          VLDR     d0,[r0,#0x18]
000a4a  ed8d0b10          VSTR     d0,[sp,#0x40]
000a4e  ed9d0b12          VLDR     d0,[sp,#0x48]
000a52  ec532b10          VMOV     r2,r3,d0
000a56  ed9d0b10          VLDR     d0,[sp,#0x40]
000a5a  ec510b10          VMOV     r0,r1,d0
000a5e  f7fffffe          BL       __aeabi_dmul
000a62  e9cd0116          STRD     r0,r1,[sp,#0x58]
000a66  4882              LDR      r0,|L5.3184|
000a68  ed900b08          VLDR     d0,[r0,#0x20]
000a6c  ed8d0b0e          VSTR     d0,[sp,#0x38]
000a70  4881              LDR      r0,|L5.3192|
000a72  ed900b04          VLDR     d0,[r0,#0x10]
000a76  ed8d0b0c          VSTR     d0,[sp,#0x30]
000a7a  ed9d0b0e          VLDR     d0,[sp,#0x38]
000a7e  ec532b10          VMOV     r2,r3,d0
000a82  ed9d0b0c          VLDR     d0,[sp,#0x30]
000a86  ec510b10          VMOV     r0,r1,d0
000a8a  f7fffffe          BL       __aeabi_dmul
000a8e  e9cd0112          STRD     r0,r1,[sp,#0x48]
000a92  4877              LDR      r0,|L5.3184|
000a94  ed900b0a          VLDR     d0,[r0,#0x28]
000a98  ed8d0b0e          VSTR     d0,[sp,#0x38]
000a9c  4876              LDR      r0,|L5.3192|
000a9e  ed900b02          VLDR     d0,[r0,#8]
000aa2  ed8d0b0c          VSTR     d0,[sp,#0x30]
000aa6  ed9d0b0e          VLDR     d0,[sp,#0x38]
000aaa  ec532b10          VMOV     r2,r3,d0
000aae  ed9d0b0c          VLDR     d0,[sp,#0x30]
000ab2  e000              B        |L5.2742|
                  |L5.2740|
000ab4  e13b              B        |L5.3374|
                  |L5.2742|
000ab6  ec510b10          VMOV     r0,r1,d0
000aba  f7fffffe          BL       __aeabi_dmul
000abe  e9cd0110          STRD     r0,r1,[sp,#0x40]
000ac2  ed9d0b12          VLDR     d0,[sp,#0x48]
000ac6  ec532b10          VMOV     r2,r3,d0
000aca  ed9d0b10          VLDR     d0,[sp,#0x40]
000ace  ec510b10          VMOV     r0,r1,d0
000ad2  f7fffffe          BL       __aeabi_dadd
000ad6  e9cd0114          STRD     r0,r1,[sp,#0x50]
000ada  ed9d0b16          VLDR     d0,[sp,#0x58]
000ade  ec532b10          VMOV     r2,r3,d0
000ae2  ed9d0b14          VLDR     d0,[sp,#0x50]
000ae6  ec510b10          VMOV     r0,r1,d0
000aea  f7fffffe          BL       __aeabi_dadd
000aee  e9cd0118          STRD     r0,r1,[sp,#0x60]
000af2  ed9d0b1a          VLDR     d0,[sp,#0x68]
000af6  ec532b10          VMOV     r2,r3,d0
000afa  ed9d0b18          VLDR     d0,[sp,#0x60]
000afe  ec510b10          VMOV     r0,r1,d0
000b02  f7fffffe          BL       __aeabi_dadd
000b06  e9cd011c          STRD     r0,r1,[sp,#0x70]
000b0a  ed9d0b1e          VLDR     d0,[sp,#0x78]
000b0e  ec532b10          VMOV     r2,r3,d0
000b12  ed9d0b1c          VLDR     d0,[sp,#0x70]
000b16  ec510b10          VMOV     r0,r1,d0
000b1a  f7fffffe          BL       __aeabi_dadd
000b1e  e9cd0120          STRD     r0,r1,[sp,#0x80]
000b22  ed9d0b22          VLDR     d0,[sp,#0x88]
000b26  ec532b10          VMOV     r2,r3,d0
000b2a  ed9d0b20          VLDR     d0,[sp,#0x80]
000b2e  ec510b10          VMOV     r0,r1,d0
000b32  f7fffffe          BL       __aeabi_dadd
000b36  e9cd0126          STRD     r0,r1,[sp,#0x98]
000b3a  484b              LDR      r0,|L5.3176|
000b3c  ed900b00          VLDR     d0,[r0,#0]
000b40  ed8d0b1e          VSTR     d0,[sp,#0x78]
000b44  4849              LDR      r0,|L5.3180|
000b46  ed900b0c          VLDR     d0,[r0,#0x30]
000b4a  ed8d0b1c          VSTR     d0,[sp,#0x70]
000b4e  ed9d0b1e          VLDR     d0,[sp,#0x78]
000b52  ec532b10          VMOV     r2,r3,d0
000b56  ed9d0b1c          VLDR     d0,[sp,#0x70]
000b5a  ec510b10          VMOV     r0,r1,d0
000b5e  f7fffffe          BL       __aeabi_dmul
000b62  e9cd0122          STRD     r0,r1,[sp,#0x88]
000b66  4840              LDR      r0,|L5.3176|
000b68  ed900b02          VLDR     d0,[r0,#8]
000b6c  ed8d0b1a          VSTR     d0,[sp,#0x68]
000b70  483e              LDR      r0,|L5.3180|
000b72  ed900b0a          VLDR     d0,[r0,#0x28]
000b76  ed8d0b18          VSTR     d0,[sp,#0x60]
000b7a  ed9d0b1a          VLDR     d0,[sp,#0x68]
000b7e  ec532b10          VMOV     r2,r3,d0
000b82  ed9d0b18          VLDR     d0,[sp,#0x60]
000b86  ec510b10          VMOV     r0,r1,d0
000b8a  f7fffffe          BL       __aeabi_dmul
000b8e  e9cd011e          STRD     r0,r1,[sp,#0x78]
000b92  4835              LDR      r0,|L5.3176|
000b94  ed900b04          VLDR     d0,[r0,#0x10]
000b98  ed8d0b16          VSTR     d0,[sp,#0x58]
000b9c  4833              LDR      r0,|L5.3180|
000b9e  ed900b08          VLDR     d0,[r0,#0x20]
000ba2  ed8d0b14          VSTR     d0,[sp,#0x50]
000ba6  ed9d0b16          VLDR     d0,[sp,#0x58]
000baa  ec532b10          VMOV     r2,r3,d0
000bae  ed9d0b14          VLDR     d0,[sp,#0x50]
000bb2  ec510b10          VMOV     r0,r1,d0
000bb6  f7fffffe          BL       __aeabi_dmul
000bba  e9cd011a          STRD     r0,r1,[sp,#0x68]
000bbe  482a              LDR      r0,|L5.3176|
000bc0  ed900b06          VLDR     d0,[r0,#0x18]
000bc4  ed8d0b12          VSTR     d0,[sp,#0x48]
000bc8  4828              LDR      r0,|L5.3180|
000bca  ed900b06          VLDR     d0,[r0,#0x18]
000bce  ed8d0b10          VSTR     d0,[sp,#0x40]
000bd2  ed9d0b12          VLDR     d0,[sp,#0x48]
000bd6  ec532b10          VMOV     r2,r3,d0
000bda  ed9d0b10          VLDR     d0,[sp,#0x40]
000bde  ec510b10          VMOV     r0,r1,d0
000be2  f7fffffe          BL       __aeabi_dmul
000be6  e9cd0116          STRD     r0,r1,[sp,#0x58]
000bea  481f              LDR      r0,|L5.3176|
000bec  ed900b08          VLDR     d0,[r0,#0x20]
000bf0  ed8d0b0e          VSTR     d0,[sp,#0x38]
000bf4  481d              LDR      r0,|L5.3180|
000bf6  ed900b04          VLDR     d0,[r0,#0x10]
000bfa  ed8d0b0c          VSTR     d0,[sp,#0x30]
000bfe  ed9d0b0e          VLDR     d0,[sp,#0x38]
000c02  ec532b10          VMOV     r2,r3,d0
000c06  ed9d0b0c          VLDR     d0,[sp,#0x30]
000c0a  ec510b10          VMOV     r0,r1,d0
000c0e  f7fffffe          BL       __aeabi_dmul
000c12  e9cd0112          STRD     r0,r1,[sp,#0x48]
000c16  4814              LDR      r0,|L5.3176|
000c18  ed900b0a          VLDR     d0,[r0,#0x28]
000c1c  ed8d0b0a          VSTR     d0,[sp,#0x28]
000c20  4812              LDR      r0,|L5.3180|
000c22  ed900b02          VLDR     d0,[r0,#8]
000c26  ed8d0b08          VSTR     d0,[sp,#0x20]
000c2a  ed9d0b0a          VLDR     d0,[sp,#0x28]
000c2e  ec532b10          VMOV     r2,r3,d0
000c32  ed9d0b08          VLDR     d0,[sp,#0x20]
000c36  ec510b10          VMOV     r0,r1,d0
000c3a  f7fffffe          BL       __aeabi_dmul
000c3e  e9cd010e          STRD     r0,r1,[sp,#0x38]
000c42  4809              LDR      r0,|L5.3176|
000c44  ed900b0c          VLDR     d0,[r0,#0x30]
000c48  ed8d0b0a          VSTR     d0,[sp,#0x28]
000c4c  4807              LDR      r0,|L5.3180|
000c4e  ed900b00          VLDR     d0,[r0,#0]
000c52  ed8d0b08          VSTR     d0,[sp,#0x20]
000c56  ed9d0b0a          VLDR     d0,[sp,#0x28]
000c5a  ec532b10          VMOV     r2,r3,d0
000c5e  ed9d0b08          VLDR     d0,[sp,#0x20]
000c62  ec510b10          VMOV     r0,r1,d0
000c66  e009              B        |L5.3196|
                  |L5.3176|
                          DCD      bart_x
                  |L5.3180|
                          DCD      bart_b
                  |L5.3184|
                          DCD      bart_y
                  |L5.3188|
                          DCD      bart_count_x
                  |L5.3192|
                          DCD      bart_a
                  |L5.3196|
000c7c  f7fffffe          BL       __aeabi_dmul
000c80  e9cd010c          STRD     r0,r1,[sp,#0x30]
000c84  ed9d0b0e          VLDR     d0,[sp,#0x38]
000c88  ec532b10          VMOV     r2,r3,d0
000c8c  ed9d0b0c          VLDR     d0,[sp,#0x30]
000c90  ec510b10          VMOV     r0,r1,d0
000c94  f7fffffe          BL       __aeabi_dadd
000c98  e9cd0110          STRD     r0,r1,[sp,#0x40]
000c9c  ed9d0b12          VLDR     d0,[sp,#0x48]
000ca0  ec532b10          VMOV     r2,r3,d0
000ca4  ed9d0b10          VLDR     d0,[sp,#0x40]
000ca8  ec510b10          VMOV     r0,r1,d0
000cac  f7fffffe          BL       __aeabi_dadd
000cb0  e9cd0114          STRD     r0,r1,[sp,#0x50]
000cb4  ed9d0b16          VLDR     d0,[sp,#0x58]
000cb8  ec532b10          VMOV     r2,r3,d0
000cbc  ed9d0b14          VLDR     d0,[sp,#0x50]
000cc0  ec510b10          VMOV     r0,r1,d0
000cc4  f7fffffe          BL       __aeabi_dadd
000cc8  e9cd0118          STRD     r0,r1,[sp,#0x60]
000ccc  ed9d0b1a          VLDR     d0,[sp,#0x68]
000cd0  ec532b10          VMOV     r2,r3,d0
000cd4  ed9d0b18          VLDR     d0,[sp,#0x60]
000cd8  ec510b10          VMOV     r0,r1,d0
000cdc  f7fffffe          BL       __aeabi_dadd
000ce0  e9cd011c          STRD     r0,r1,[sp,#0x70]
000ce4  ed9d0b1e          VLDR     d0,[sp,#0x78]
000ce8  ec532b10          VMOV     r2,r3,d0
000cec  ed9d0b1c          VLDR     d0,[sp,#0x70]
000cf0  ec510b10          VMOV     r0,r1,d0
000cf4  f7fffffe          BL       __aeabi_dadd
000cf8  e9cd0120          STRD     r0,r1,[sp,#0x80]
000cfc  ed9d0b22          VLDR     d0,[sp,#0x88]
000d00  ec532b10          VMOV     r2,r3,d0
000d04  ed9d0b20          VLDR     d0,[sp,#0x80]
000d08  ec510b10          VMOV     r0,r1,d0
000d0c  f7fffffe          BL       __aeabi_dadd
000d10  e9cd0124          STRD     r0,r1,[sp,#0x90]
000d14  ed9d0b26          VLDR     d0,[sp,#0x98]
000d18  ec532b10          VMOV     r2,r3,d0
000d1c  ed9d0b24          VLDR     d0,[sp,#0x90]
000d20  ec510b10          VMOV     r0,r1,d0
000d24  f7fffffe          BL       __aeabi_dsub
000d28  4afe              LDR      r2,|L5.4388|
000d2a  e9c2010c          STRD     r0,r1,[r2,#0x30]
                  |L5.3374|
;;;1149   		             bart_b[5] * bart_x[1] + bart_b[6] * bart_x[0] )- 
;;;1150   		            (bart_a[1] * bart_y[5] + bart_a[2] * bart_y[4] + bart_a[3] * bart_y[3]+ bart_a[4] * bart_y[2] +
;;;1151   		             bart_a[5] * bart_y[1] + bart_a[6] * bart_y[0] );
;;;1152   
;;;1153   	}		
;;;1154   	if(bart_count_x == 8)
000d2e  48fe              LDR      r0,|L5.4392|
000d30  7800              LDRB     r0,[r0,#0]  ; bart_count_x
000d32  2808              CMP      r0,#8
000d34  d17e              BNE      |L5.3636|
;;;1155   	{
;;;1156   		bart_y[7] = (bart_b[0] * bart_x[7] + bart_b[1] * bart_x[6] + bart_b[2] * bart_x[5]+ bart_b[3] * bart_x[4]+ bart_b[4] * bart_x[3]+
000d36  48fb              LDR      r0,|L5.4388|
000d38  ed900b00          VLDR     d0,[r0,#0]
000d3c  ed8d0b1e          VSTR     d0,[sp,#0x78]
000d40  48fa              LDR      r0,|L5.4396|
000d42  ed900b0e          VLDR     d0,[r0,#0x38]
000d46  ed8d0b1c          VSTR     d0,[sp,#0x70]
000d4a  ed9d0b1e          VLDR     d0,[sp,#0x78]
000d4e  ec532b10          VMOV     r2,r3,d0
000d52  ed9d0b1c          VLDR     d0,[sp,#0x70]
000d56  ec510b10          VMOV     r0,r1,d0
000d5a  f7fffffe          BL       __aeabi_dmul
000d5e  e9cd0122          STRD     r0,r1,[sp,#0x88]
000d62  48f0              LDR      r0,|L5.4388|
000d64  ed900b02          VLDR     d0,[r0,#8]
000d68  ed8d0b1a          VSTR     d0,[sp,#0x68]
000d6c  48ef              LDR      r0,|L5.4396|
000d6e  ed900b0c          VLDR     d0,[r0,#0x30]
000d72  ed8d0b18          VSTR     d0,[sp,#0x60]
000d76  ed9d0b1a          VLDR     d0,[sp,#0x68]
000d7a  ec532b10          VMOV     r2,r3,d0
000d7e  ed9d0b18          VLDR     d0,[sp,#0x60]
000d82  ec510b10          VMOV     r0,r1,d0
000d86  f7fffffe          BL       __aeabi_dmul
000d8a  e9cd011e          STRD     r0,r1,[sp,#0x78]
000d8e  48e5              LDR      r0,|L5.4388|
000d90  ed900b04          VLDR     d0,[r0,#0x10]
000d94  ed8d0b16          VSTR     d0,[sp,#0x58]
000d98  48e4              LDR      r0,|L5.4396|
000d9a  ed900b0a          VLDR     d0,[r0,#0x28]
000d9e  ed8d0b14          VSTR     d0,[sp,#0x50]
000da2  ed9d0b16          VLDR     d0,[sp,#0x58]
000da6  ec532b10          VMOV     r2,r3,d0
000daa  ed9d0b14          VLDR     d0,[sp,#0x50]
000dae  ec510b10          VMOV     r0,r1,d0
000db2  f7fffffe          BL       __aeabi_dmul
000db6  e9cd011a          STRD     r0,r1,[sp,#0x68]
000dba  48da              LDR      r0,|L5.4388|
000dbc  ed900b06          VLDR     d0,[r0,#0x18]
000dc0  ed8d0b12          VSTR     d0,[sp,#0x48]
000dc4  48d9              LDR      r0,|L5.4396|
000dc6  ed900b08          VLDR     d0,[r0,#0x20]
000dca  ed8d0b10          VSTR     d0,[sp,#0x40]
000dce  ed9d0b12          VLDR     d0,[sp,#0x48]
000dd2  ec532b10          VMOV     r2,r3,d0
000dd6  ed9d0b10          VLDR     d0,[sp,#0x40]
000dda  ec510b10          VMOV     r0,r1,d0
000dde  f7fffffe          BL       __aeabi_dmul
000de2  e9cd0116          STRD     r0,r1,[sp,#0x58]
000de6  48cf              LDR      r0,|L5.4388|
000de8  ed900b08          VLDR     d0,[r0,#0x20]
000dec  ed8d0b0e          VSTR     d0,[sp,#0x38]
000df0  48ce              LDR      r0,|L5.4396|
000df2  ed900b06          VLDR     d0,[r0,#0x18]
000df6  ed8d0b0c          VSTR     d0,[sp,#0x30]
000dfa  ed9d0b0e          VLDR     d0,[sp,#0x38]
000dfe  ec532b10          VMOV     r2,r3,d0
000e02  ed9d0b0c          VLDR     d0,[sp,#0x30]
000e06  ec510b10          VMOV     r0,r1,d0
000e0a  f7fffffe          BL       __aeabi_dmul
000e0e  e9cd0112          STRD     r0,r1,[sp,#0x48]
000e12  48c4              LDR      r0,|L5.4388|
000e14  ed900b0a          VLDR     d0,[r0,#0x28]
000e18  ed8d0b0a          VSTR     d0,[sp,#0x28]
000e1c  48c3              LDR      r0,|L5.4396|
000e1e  ed900b04          VLDR     d0,[r0,#0x10]
000e22  ed8d0b08          VSTR     d0,[sp,#0x20]
000e26  ed9d0b0a          VLDR     d0,[sp,#0x28]
000e2a  ec532b10          VMOV     r2,r3,d0
000e2e  ed9d0b08          VLDR     d0,[sp,#0x20]
000e32  e000              B        |L5.3638|
                  |L5.3636|
000e34  e174              B        |L5.4384|
                  |L5.3638|
000e36  ec510b10          VMOV     r0,r1,d0
000e3a  f7fffffe          BL       __aeabi_dmul
000e3e  e9cd010e          STRD     r0,r1,[sp,#0x38]
000e42  48b8              LDR      r0,|L5.4388|
000e44  ed900b0c          VLDR     d0,[r0,#0x30]
000e48  ed8d0b0a          VSTR     d0,[sp,#0x28]
000e4c  48b7              LDR      r0,|L5.4396|
000e4e  ed900b02          VLDR     d0,[r0,#8]
000e52  ed8d0b08          VSTR     d0,[sp,#0x20]
000e56  ed9d0b0a          VLDR     d0,[sp,#0x28]
000e5a  ec532b10          VMOV     r2,r3,d0
000e5e  ed9d0b08          VLDR     d0,[sp,#0x20]
000e62  ec510b10          VMOV     r0,r1,d0
000e66  f7fffffe          BL       __aeabi_dmul
000e6a  e9cd010c          STRD     r0,r1,[sp,#0x30]
000e6e  ed9d0b0e          VLDR     d0,[sp,#0x38]
000e72  ec532b10          VMOV     r2,r3,d0
000e76  ed9d0b0c          VLDR     d0,[sp,#0x30]
000e7a  ec510b10          VMOV     r0,r1,d0
000e7e  f7fffffe          BL       __aeabi_dadd
000e82  e9cd0110          STRD     r0,r1,[sp,#0x40]
000e86  ed9d0b12          VLDR     d0,[sp,#0x48]
000e8a  ec532b10          VMOV     r2,r3,d0
000e8e  ed9d0b10          VLDR     d0,[sp,#0x40]
000e92  ec510b10          VMOV     r0,r1,d0
000e96  f7fffffe          BL       __aeabi_dadd
000e9a  e9cd0114          STRD     r0,r1,[sp,#0x50]
000e9e  ed9d0b16          VLDR     d0,[sp,#0x58]
000ea2  ec532b10          VMOV     r2,r3,d0
000ea6  ed9d0b14          VLDR     d0,[sp,#0x50]
000eaa  ec510b10          VMOV     r0,r1,d0
000eae  f7fffffe          BL       __aeabi_dadd
000eb2  e9cd0118          STRD     r0,r1,[sp,#0x60]
000eb6  ed9d0b1a          VLDR     d0,[sp,#0x68]
000eba  ec532b10          VMOV     r2,r3,d0
000ebe  ed9d0b18          VLDR     d0,[sp,#0x60]
000ec2  ec510b10          VMOV     r0,r1,d0
000ec6  f7fffffe          BL       __aeabi_dadd
000eca  e9cd011c          STRD     r0,r1,[sp,#0x70]
000ece  ed9d0b1e          VLDR     d0,[sp,#0x78]
000ed2  ec532b10          VMOV     r2,r3,d0
000ed6  ed9d0b1c          VLDR     d0,[sp,#0x70]
000eda  ec510b10          VMOV     r0,r1,d0
000ede  f7fffffe          BL       __aeabi_dadd
000ee2  e9cd0120          STRD     r0,r1,[sp,#0x80]
000ee6  ed9d0b22          VLDR     d0,[sp,#0x88]
000eea  ec532b10          VMOV     r2,r3,d0
000eee  ed9d0b20          VLDR     d0,[sp,#0x80]
000ef2  ec510b10          VMOV     r0,r1,d0
000ef6  f7fffffe          BL       __aeabi_dadd
000efa  e9cd0126          STRD     r0,r1,[sp,#0x98]
000efe  488c              LDR      r0,|L5.4400|
000f00  ed900b00          VLDR     d0,[r0,#0]
000f04  ed8d0b1e          VSTR     d0,[sp,#0x78]
000f08  488a              LDR      r0,|L5.4404|
000f0a  ed900b0e          VLDR     d0,[r0,#0x38]
000f0e  ed8d0b1c          VSTR     d0,[sp,#0x70]
000f12  ed9d0b1e          VLDR     d0,[sp,#0x78]
000f16  ec532b10          VMOV     r2,r3,d0
000f1a  ed9d0b1c          VLDR     d0,[sp,#0x70]
000f1e  ec510b10          VMOV     r0,r1,d0
000f22  f7fffffe          BL       __aeabi_dmul
000f26  e9cd0122          STRD     r0,r1,[sp,#0x88]
000f2a  4881              LDR      r0,|L5.4400|
000f2c  ed900b02          VLDR     d0,[r0,#8]
000f30  ed8d0b1a          VSTR     d0,[sp,#0x68]
000f34  487f              LDR      r0,|L5.4404|
000f36  ed900b0c          VLDR     d0,[r0,#0x30]
000f3a  ed8d0b18          VSTR     d0,[sp,#0x60]
000f3e  ed9d0b1a          VLDR     d0,[sp,#0x68]
000f42  ec532b10          VMOV     r2,r3,d0
000f46  ed9d0b18          VLDR     d0,[sp,#0x60]
000f4a  ec510b10          VMOV     r0,r1,d0
000f4e  f7fffffe          BL       __aeabi_dmul
000f52  e9cd011e          STRD     r0,r1,[sp,#0x78]
000f56  4876              LDR      r0,|L5.4400|
000f58  ed900b04          VLDR     d0,[r0,#0x10]
000f5c  ed8d0b16          VSTR     d0,[sp,#0x58]
000f60  4874              LDR      r0,|L5.4404|
000f62  ed900b0a          VLDR     d0,[r0,#0x28]
000f66  ed8d0b14          VSTR     d0,[sp,#0x50]
000f6a  ed9d0b16          VLDR     d0,[sp,#0x58]
000f6e  ec532b10          VMOV     r2,r3,d0
000f72  ed9d0b14          VLDR     d0,[sp,#0x50]
000f76  ec510b10          VMOV     r0,r1,d0
000f7a  f7fffffe          BL       __aeabi_dmul
000f7e  e9cd011a          STRD     r0,r1,[sp,#0x68]
000f82  486b              LDR      r0,|L5.4400|
000f84  ed900b06          VLDR     d0,[r0,#0x18]
000f88  ed8d0b12          VSTR     d0,[sp,#0x48]
000f8c  4869              LDR      r0,|L5.4404|
000f8e  ed900b08          VLDR     d0,[r0,#0x20]
000f92  ed8d0b10          VSTR     d0,[sp,#0x40]
000f96  ed9d0b12          VLDR     d0,[sp,#0x48]
000f9a  ec532b10          VMOV     r2,r3,d0
000f9e  ed9d0b10          VLDR     d0,[sp,#0x40]
000fa2  ec510b10          VMOV     r0,r1,d0
000fa6  f7fffffe          BL       __aeabi_dmul
000faa  e9cd0116          STRD     r0,r1,[sp,#0x58]
000fae  4860              LDR      r0,|L5.4400|
000fb0  ed900b08          VLDR     d0,[r0,#0x20]
000fb4  ed8d0b0e          VSTR     d0,[sp,#0x38]
000fb8  485e              LDR      r0,|L5.4404|
000fba  ed900b06          VLDR     d0,[r0,#0x18]
000fbe  ed8d0b0c          VSTR     d0,[sp,#0x30]
000fc2  ed9d0b0e          VLDR     d0,[sp,#0x38]
000fc6  ec532b10          VMOV     r2,r3,d0
000fca  ed9d0b0c          VLDR     d0,[sp,#0x30]
000fce  ec510b10          VMOV     r0,r1,d0
000fd2  f7fffffe          BL       __aeabi_dmul
000fd6  e9cd0112          STRD     r0,r1,[sp,#0x48]
000fda  4855              LDR      r0,|L5.4400|
000fdc  ed900b0a          VLDR     d0,[r0,#0x28]
000fe0  ed8d0b0a          VSTR     d0,[sp,#0x28]
000fe4  4853              LDR      r0,|L5.4404|
000fe6  ed900b04          VLDR     d0,[r0,#0x10]
000fea  ed8d0b08          VSTR     d0,[sp,#0x20]
000fee  ed9d0b0a          VLDR     d0,[sp,#0x28]
000ff2  ec532b10          VMOV     r2,r3,d0
000ff6  ed9d0b08          VLDR     d0,[sp,#0x20]
000ffa  ec510b10          VMOV     r0,r1,d0
000ffe  f7fffffe          BL       __aeabi_dmul
001002  e9cd010e          STRD     r0,r1,[sp,#0x38]
001006  484a              LDR      r0,|L5.4400|
001008  ed900b0c          VLDR     d0,[r0,#0x30]
00100c  ed8d0b06          VSTR     d0,[sp,#0x18]
001010  4848              LDR      r0,|L5.4404|
001012  ed900b02          VLDR     d0,[r0,#8]
001016  ed8d0b04          VSTR     d0,[sp,#0x10]
00101a  ed9d0b06          VLDR     d0,[sp,#0x18]
00101e  ec532b10          VMOV     r2,r3,d0
001022  ed9d0b04          VLDR     d0,[sp,#0x10]
001026  ec510b10          VMOV     r0,r1,d0
00102a  f7fffffe          BL       __aeabi_dmul
00102e  e9cd010a          STRD     r0,r1,[sp,#0x28]
001032  483f              LDR      r0,|L5.4400|
001034  ed900b0e          VLDR     d0,[r0,#0x38]
001038  ed8d0b06          VSTR     d0,[sp,#0x18]
00103c  483d              LDR      r0,|L5.4404|
00103e  ed900b00          VLDR     d0,[r0,#0]
001042  ed8d0b04          VSTR     d0,[sp,#0x10]
001046  ed9d0b06          VLDR     d0,[sp,#0x18]
00104a  ec532b10          VMOV     r2,r3,d0
00104e  ed9d0b04          VLDR     d0,[sp,#0x10]
001052  ec510b10          VMOV     r0,r1,d0
001056  f7fffffe          BL       __aeabi_dmul
00105a  e9cd0108          STRD     r0,r1,[sp,#0x20]
00105e  ed9d0b0a          VLDR     d0,[sp,#0x28]
001062  ec532b10          VMOV     r2,r3,d0
001066  ed9d0b08          VLDR     d0,[sp,#0x20]
00106a  ec510b10          VMOV     r0,r1,d0
00106e  f7fffffe          BL       __aeabi_dadd
001072  e9cd010c          STRD     r0,r1,[sp,#0x30]
001076  ed9d0b0e          VLDR     d0,[sp,#0x38]
00107a  ec532b10          VMOV     r2,r3,d0
00107e  ed9d0b0c          VLDR     d0,[sp,#0x30]
001082  ec510b10          VMOV     r0,r1,d0
001086  f7fffffe          BL       __aeabi_dadd
00108a  e9cd0110          STRD     r0,r1,[sp,#0x40]
00108e  ed9d0b12          VLDR     d0,[sp,#0x48]
001092  ec532b10          VMOV     r2,r3,d0
001096  ed9d0b10          VLDR     d0,[sp,#0x40]
00109a  ec510b10          VMOV     r0,r1,d0
00109e  f7fffffe          BL       __aeabi_dadd
0010a2  e9cd0114          STRD     r0,r1,[sp,#0x50]
0010a6  ed9d0b16          VLDR     d0,[sp,#0x58]
0010aa  ec532b10          VMOV     r2,r3,d0
0010ae  ed9d0b14          VLDR     d0,[sp,#0x50]
0010b2  ec510b10          VMOV     r0,r1,d0
0010b6  f7fffffe          BL       __aeabi_dadd
0010ba  e9cd0118          STRD     r0,r1,[sp,#0x60]
0010be  ed9d0b1a          VLDR     d0,[sp,#0x68]
0010c2  ec532b10          VMOV     r2,r3,d0
0010c6  ed9d0b18          VLDR     d0,[sp,#0x60]
0010ca  ec510b10          VMOV     r0,r1,d0
0010ce  f7fffffe          BL       __aeabi_dadd
0010d2  e9cd011c          STRD     r0,r1,[sp,#0x70]
0010d6  ed9d0b1e          VLDR     d0,[sp,#0x78]
0010da  ec532b10          VMOV     r2,r3,d0
0010de  ed9d0b1c          VLDR     d0,[sp,#0x70]
0010e2  ec510b10          VMOV     r0,r1,d0
0010e6  f7fffffe          BL       __aeabi_dadd
0010ea  e9cd0120          STRD     r0,r1,[sp,#0x80]
0010ee  ed9d0b22          VLDR     d0,[sp,#0x88]
0010f2  ec532b10          VMOV     r2,r3,d0
0010f6  ed9d0b20          VLDR     d0,[sp,#0x80]
0010fa  ec510b10          VMOV     r0,r1,d0
0010fe  f7fffffe          BL       __aeabi_dadd
001102  e9cd0124          STRD     r0,r1,[sp,#0x90]
001106  ed9d0b26          VLDR     d0,[sp,#0x98]
00110a  ec532b10          VMOV     r2,r3,d0
00110e  ed9d0b24          VLDR     d0,[sp,#0x90]
001112  ec510b10          VMOV     r0,r1,d0
001116  f7fffffe          BL       __aeabi_dsub
00111a  4a02              LDR      r2,|L5.4388|
00111c  e9c2010e          STRD     r0,r1,[r2,#0x38]
                  |L5.4384|
;;;1157   		             bart_b[5] * bart_x[2] + bart_b[6] * bart_x[1] + bart_b[7] * bart_x[0])- 
;;;1158   		            (bart_a[1] * bart_y[6] + bart_a[2] * bart_y[5] + bart_a[3] * bart_y[4]+ bart_a[4] * bart_y[3] +
;;;1159   		             bart_a[5] * bart_y[2] + bart_a[6] * bart_y[1] + bart_a[7] * bart_y[0]);
;;;1160   
;;;1161   	}	
;;;1162   	
;;;1163   	
;;;1164   	
;;;1165   	if(bart_count_x%9 == 0)
001120  4801              LDR      r0,|L5.4392|
001122  e009              B        |L5.4408|
                  |L5.4388|
                          DCD      bart_y
                  |L5.4392|
                          DCD      bart_count_x
                  |L5.4396|
                          DCD      bart_a
                  |L5.4400|
                          DCD      bart_x
                  |L5.4404|
                          DCD      bart_b
                  |L5.4408|
001138  7800              LDRB     r0,[r0,#0]  ; bart_count_x
00113a  2109              MOVS     r1,#9
00113c  fb90f2f1          SDIV     r2,r0,r1
001140  fb010012          MLS      r0,r1,r2,r0
001144  2800              CMP      r0,#0
001146  d17c              BNE      |L5.4674|
;;;1166   	{
;;;1167   		bart_y[8] = (bart_b[0] * bart_x[8] + bart_b[1] * bart_x[7] + bart_b[2] * bart_x[6]+ bart_b[3] * bart_x[5]+ bart_b[4] * bart_x[4]+
001148  48fe              LDR      r0,|L5.5444|
00114a  ed900b00          VLDR     d0,[r0,#0]
00114e  ed8d0b1e          VSTR     d0,[sp,#0x78]
001152  48fd              LDR      r0,|L5.5448|
001154  ed900b10          VLDR     d0,[r0,#0x40]
001158  ed8d0b1c          VSTR     d0,[sp,#0x70]
00115c  ed9d0b1e          VLDR     d0,[sp,#0x78]
001160  ec532b10          VMOV     r2,r3,d0
001164  ed9d0b1c          VLDR     d0,[sp,#0x70]
001168  ec510b10          VMOV     r0,r1,d0
00116c  f7fffffe          BL       __aeabi_dmul
001170  e9cd0122          STRD     r0,r1,[sp,#0x88]
001174  48f3              LDR      r0,|L5.5444|
001176  ed900b02          VLDR     d0,[r0,#8]
00117a  ed8d0b1a          VSTR     d0,[sp,#0x68]
00117e  48f2              LDR      r0,|L5.5448|
001180  ed900b0e          VLDR     d0,[r0,#0x38]
001184  ed8d0b18          VSTR     d0,[sp,#0x60]
001188  ed9d0b1a          VLDR     d0,[sp,#0x68]
00118c  ec532b10          VMOV     r2,r3,d0
001190  ed9d0b18          VLDR     d0,[sp,#0x60]
001194  ec510b10          VMOV     r0,r1,d0
001198  f7fffffe          BL       __aeabi_dmul
00119c  e9cd011e          STRD     r0,r1,[sp,#0x78]
0011a0  48e8              LDR      r0,|L5.5444|
0011a2  ed900b04          VLDR     d0,[r0,#0x10]
0011a6  ed8d0b16          VSTR     d0,[sp,#0x58]
0011aa  48e7              LDR      r0,|L5.5448|
0011ac  ed900b0c          VLDR     d0,[r0,#0x30]
0011b0  ed8d0b14          VSTR     d0,[sp,#0x50]
0011b4  ed9d0b16          VLDR     d0,[sp,#0x58]
0011b8  ec532b10          VMOV     r2,r3,d0
0011bc  ed9d0b14          VLDR     d0,[sp,#0x50]
0011c0  ec510b10          VMOV     r0,r1,d0
0011c4  f7fffffe          BL       __aeabi_dmul
0011c8  e9cd011a          STRD     r0,r1,[sp,#0x68]
0011cc  48dd              LDR      r0,|L5.5444|
0011ce  ed900b06          VLDR     d0,[r0,#0x18]
0011d2  ed8d0b12          VSTR     d0,[sp,#0x48]
0011d6  48dc              LDR      r0,|L5.5448|
0011d8  ed900b0a          VLDR     d0,[r0,#0x28]
0011dc  ed8d0b10          VSTR     d0,[sp,#0x40]
0011e0  ed9d0b12          VLDR     d0,[sp,#0x48]
0011e4  ec532b10          VMOV     r2,r3,d0
0011e8  ed9d0b10          VLDR     d0,[sp,#0x40]
0011ec  ec510b10          VMOV     r0,r1,d0
0011f0  f7fffffe          BL       __aeabi_dmul
0011f4  e9cd0116          STRD     r0,r1,[sp,#0x58]
0011f8  48d2              LDR      r0,|L5.5444|
0011fa  ed900b08          VLDR     d0,[r0,#0x20]
0011fe  ed8d0b0e          VSTR     d0,[sp,#0x38]
001202  48d1              LDR      r0,|L5.5448|
001204  ed900b08          VLDR     d0,[r0,#0x20]
001208  ed8d0b0c          VSTR     d0,[sp,#0x30]
00120c  ed9d0b0e          VLDR     d0,[sp,#0x38]
001210  ec532b10          VMOV     r2,r3,d0
001214  ed9d0b0c          VLDR     d0,[sp,#0x30]
001218  ec510b10          VMOV     r0,r1,d0
00121c  f7fffffe          BL       __aeabi_dmul
001220  e9cd0112          STRD     r0,r1,[sp,#0x48]
001224  48c7              LDR      r0,|L5.5444|
001226  ed900b0a          VLDR     d0,[r0,#0x28]
00122a  ed8d0b0a          VSTR     d0,[sp,#0x28]
00122e  48c6              LDR      r0,|L5.5448|
001230  ed900b06          VLDR     d0,[r0,#0x18]
001234  ed8d0b08          VSTR     d0,[sp,#0x20]
001238  ed9d0b0a          VLDR     d0,[sp,#0x28]
00123c  ec532b10          VMOV     r2,r3,d0
001240  e000              B        |L5.4676|
                  |L5.4674|
001242  e212              B        |L5.5738|
                  |L5.4676|
001244  ed9d0b08          VLDR     d0,[sp,#0x20]
001248  ec510b10          VMOV     r0,r1,d0
00124c  f7fffffe          BL       __aeabi_dmul
001250  e9cd010e          STRD     r0,r1,[sp,#0x38]
001254  48bb              LDR      r0,|L5.5444|
001256  ed900b0c          VLDR     d0,[r0,#0x30]
00125a  ed8d0b06          VSTR     d0,[sp,#0x18]
00125e  48ba              LDR      r0,|L5.5448|
001260  ed900b04          VLDR     d0,[r0,#0x10]
001264  ed8d0b04          VSTR     d0,[sp,#0x10]
001268  ed9d0b06          VLDR     d0,[sp,#0x18]
00126c  ec532b10          VMOV     r2,r3,d0
001270  ed9d0b04          VLDR     d0,[sp,#0x10]
001274  ec510b10          VMOV     r0,r1,d0
001278  f7fffffe          BL       __aeabi_dmul
00127c  e9cd010a          STRD     r0,r1,[sp,#0x28]
001280  48b0              LDR      r0,|L5.5444|
001282  ed900b0e          VLDR     d0,[r0,#0x38]
001286  ed8d0b06          VSTR     d0,[sp,#0x18]
00128a  48af              LDR      r0,|L5.5448|
00128c  ed900b02          VLDR     d0,[r0,#8]
001290  ed8d0b04          VSTR     d0,[sp,#0x10]
001294  ed9d0b06          VLDR     d0,[sp,#0x18]
001298  ec532b10          VMOV     r2,r3,d0
00129c  ed9d0b04          VLDR     d0,[sp,#0x10]
0012a0  ec510b10          VMOV     r0,r1,d0
0012a4  f7fffffe          BL       __aeabi_dmul
0012a8  e9cd0108          STRD     r0,r1,[sp,#0x20]
0012ac  ed9d0b0a          VLDR     d0,[sp,#0x28]
0012b0  ec532b10          VMOV     r2,r3,d0
0012b4  ed9d0b08          VLDR     d0,[sp,#0x20]
0012b8  ec510b10          VMOV     r0,r1,d0
0012bc  f7fffffe          BL       __aeabi_dadd
0012c0  e9cd010c          STRD     r0,r1,[sp,#0x30]
0012c4  ed9d0b0e          VLDR     d0,[sp,#0x38]
0012c8  ec532b10          VMOV     r2,r3,d0
0012cc  ed9d0b0c          VLDR     d0,[sp,#0x30]
0012d0  ec510b10          VMOV     r0,r1,d0
0012d4  f7fffffe          BL       __aeabi_dadd
0012d8  e9cd0110          STRD     r0,r1,[sp,#0x40]
0012dc  ed9d0b12          VLDR     d0,[sp,#0x48]
0012e0  ec532b10          VMOV     r2,r3,d0
0012e4  ed9d0b10          VLDR     d0,[sp,#0x40]
0012e8  ec510b10          VMOV     r0,r1,d0
0012ec  f7fffffe          BL       __aeabi_dadd
0012f0  e9cd0114          STRD     r0,r1,[sp,#0x50]
0012f4  ed9d0b16          VLDR     d0,[sp,#0x58]
0012f8  ec532b10          VMOV     r2,r3,d0
0012fc  ed9d0b14          VLDR     d0,[sp,#0x50]
001300  ec510b10          VMOV     r0,r1,d0
001304  f7fffffe          BL       __aeabi_dadd
001308  e9cd0118          STRD     r0,r1,[sp,#0x60]
00130c  ed9d0b1a          VLDR     d0,[sp,#0x68]
001310  ec532b10          VMOV     r2,r3,d0
001314  ed9d0b18          VLDR     d0,[sp,#0x60]
001318  ec510b10          VMOV     r0,r1,d0
00131c  f7fffffe          BL       __aeabi_dadd
001320  e9cd011c          STRD     r0,r1,[sp,#0x70]
001324  ed9d0b1e          VLDR     d0,[sp,#0x78]
001328  ec532b10          VMOV     r2,r3,d0
00132c  ed9d0b1c          VLDR     d0,[sp,#0x70]
001330  ec510b10          VMOV     r0,r1,d0
001334  f7fffffe          BL       __aeabi_dadd
001338  e9cd0120          STRD     r0,r1,[sp,#0x80]
00133c  ed9d0b22          VLDR     d0,[sp,#0x88]
001340  ec532b10          VMOV     r2,r3,d0
001344  ed9d0b20          VLDR     d0,[sp,#0x80]
001348  ec510b10          VMOV     r0,r1,d0
00134c  f7fffffe          BL       __aeabi_dadd
001350  e9cd0126          STRD     r0,r1,[sp,#0x98]
001354  487d              LDR      r0,|L5.5452|
001356  ed900b00          VLDR     d0,[r0,#0]
00135a  ed8d0b1e          VSTR     d0,[sp,#0x78]
00135e  487c              LDR      r0,|L5.5456|
001360  ed900b10          VLDR     d0,[r0,#0x40]
001364  ed8d0b1c          VSTR     d0,[sp,#0x70]
001368  ed9d0b1e          VLDR     d0,[sp,#0x78]
00136c  ec532b10          VMOV     r2,r3,d0
001370  ed9d0b1c          VLDR     d0,[sp,#0x70]
001374  ec510b10          VMOV     r0,r1,d0
001378  f7fffffe          BL       __aeabi_dmul
00137c  e9cd0122          STRD     r0,r1,[sp,#0x88]
001380  4872              LDR      r0,|L5.5452|
001382  ed900b02          VLDR     d0,[r0,#8]
001386  ed8d0b1a          VSTR     d0,[sp,#0x68]
00138a  4871              LDR      r0,|L5.5456|
00138c  ed900b0e          VLDR     d0,[r0,#0x38]
001390  ed8d0b18          VSTR     d0,[sp,#0x60]
001394  ed9d0b1a          VLDR     d0,[sp,#0x68]
001398  ec532b10          VMOV     r2,r3,d0
00139c  ed9d0b18          VLDR     d0,[sp,#0x60]
0013a0  ec510b10          VMOV     r0,r1,d0
0013a4  f7fffffe          BL       __aeabi_dmul
0013a8  e9cd011e          STRD     r0,r1,[sp,#0x78]
0013ac  4867              LDR      r0,|L5.5452|
0013ae  ed900b04          VLDR     d0,[r0,#0x10]
0013b2  ed8d0b16          VSTR     d0,[sp,#0x58]
0013b6  4866              LDR      r0,|L5.5456|
0013b8  ed900b0c          VLDR     d0,[r0,#0x30]
0013bc  ed8d0b14          VSTR     d0,[sp,#0x50]
0013c0  ed9d0b16          VLDR     d0,[sp,#0x58]
0013c4  ec532b10          VMOV     r2,r3,d0
0013c8  ed9d0b14          VLDR     d0,[sp,#0x50]
0013cc  ec510b10          VMOV     r0,r1,d0
0013d0  f7fffffe          BL       __aeabi_dmul
0013d4  e9cd011a          STRD     r0,r1,[sp,#0x68]
0013d8  485c              LDR      r0,|L5.5452|
0013da  ed900b06          VLDR     d0,[r0,#0x18]
0013de  ed8d0b12          VSTR     d0,[sp,#0x48]
0013e2  485b              LDR      r0,|L5.5456|
0013e4  ed900b0a          VLDR     d0,[r0,#0x28]
0013e8  ed8d0b10          VSTR     d0,[sp,#0x40]
0013ec  ed9d0b12          VLDR     d0,[sp,#0x48]
0013f0  ec532b10          VMOV     r2,r3,d0
0013f4  ed9d0b10          VLDR     d0,[sp,#0x40]
0013f8  ec510b10          VMOV     r0,r1,d0
0013fc  f7fffffe          BL       __aeabi_dmul
001400  e9cd0116          STRD     r0,r1,[sp,#0x58]
001404  4851              LDR      r0,|L5.5452|
001406  ed900b08          VLDR     d0,[r0,#0x20]
00140a  ed8d0b0e          VSTR     d0,[sp,#0x38]
00140e  4850              LDR      r0,|L5.5456|
001410  ed900b08          VLDR     d0,[r0,#0x20]
001414  ed8d0b0c          VSTR     d0,[sp,#0x30]
001418  ed9d0b0e          VLDR     d0,[sp,#0x38]
00141c  ec532b10          VMOV     r2,r3,d0
001420  ed9d0b0c          VLDR     d0,[sp,#0x30]
001424  ec510b10          VMOV     r0,r1,d0
001428  f7fffffe          BL       __aeabi_dmul
00142c  e9cd0112          STRD     r0,r1,[sp,#0x48]
001430  4846              LDR      r0,|L5.5452|
001432  ed900b0a          VLDR     d0,[r0,#0x28]
001436  ed8d0b0a          VSTR     d0,[sp,#0x28]
00143a  4845              LDR      r0,|L5.5456|
00143c  ed900b06          VLDR     d0,[r0,#0x18]
001440  ed8d0b08          VSTR     d0,[sp,#0x20]
001444  ed9d0b0a          VLDR     d0,[sp,#0x28]
001448  ec532b10          VMOV     r2,r3,d0
00144c  ed9d0b08          VLDR     d0,[sp,#0x20]
001450  ec510b10          VMOV     r0,r1,d0
001454  f7fffffe          BL       __aeabi_dmul
001458  e9cd010e          STRD     r0,r1,[sp,#0x38]
00145c  483b              LDR      r0,|L5.5452|
00145e  ed900b0c          VLDR     d0,[r0,#0x30]
001462  ed8d0b06          VSTR     d0,[sp,#0x18]
001466  483a              LDR      r0,|L5.5456|
001468  ed900b04          VLDR     d0,[r0,#0x10]
00146c  ed8d0b04          VSTR     d0,[sp,#0x10]
001470  ed9d0b06          VLDR     d0,[sp,#0x18]
001474  ec532b10          VMOV     r2,r3,d0
001478  ed9d0b04          VLDR     d0,[sp,#0x10]
00147c  ec510b10          VMOV     r0,r1,d0
001480  f7fffffe          BL       __aeabi_dmul
001484  e9cd010a          STRD     r0,r1,[sp,#0x28]
001488  4830              LDR      r0,|L5.5452|
00148a  ed900b0e          VLDR     d0,[r0,#0x38]
00148e  ed8d0b02          VSTR     d0,[sp,#8]
001492  482f              LDR      r0,|L5.5456|
001494  ed900b02          VLDR     d0,[r0,#8]
001498  ed8d0b00          VSTR     d0,[sp,#0]
00149c  ed9d0b02          VLDR     d0,[sp,#8]
0014a0  ec532b10          VMOV     r2,r3,d0
0014a4  ed9d0b00          VLDR     d0,[sp,#0]
0014a8  ec510b10          VMOV     r0,r1,d0
0014ac  f7fffffe          BL       __aeabi_dmul
0014b0  e9cd0106          STRD     r0,r1,[sp,#0x18]
0014b4  4825              LDR      r0,|L5.5452|
0014b6  ed900b10          VLDR     d0,[r0,#0x40]
0014ba  ed8d0b02          VSTR     d0,[sp,#8]
0014be  4824              LDR      r0,|L5.5456|
0014c0  ed900b00          VLDR     d0,[r0,#0]
0014c4  ed8d0b00          VSTR     d0,[sp,#0]
0014c8  ed9d0b02          VLDR     d0,[sp,#8]
0014cc  ec532b10          VMOV     r2,r3,d0
0014d0  ed9d0b00          VLDR     d0,[sp,#0]
0014d4  ec510b10          VMOV     r0,r1,d0
0014d8  f7fffffe          BL       __aeabi_dmul
0014dc  e9cd0104          STRD     r0,r1,[sp,#0x10]
0014e0  ed9d0b06          VLDR     d0,[sp,#0x18]
0014e4  ec532b10          VMOV     r2,r3,d0
0014e8  ed9d0b04          VLDR     d0,[sp,#0x10]
0014ec  ec510b10          VMOV     r0,r1,d0
0014f0  f7fffffe          BL       __aeabi_dadd
0014f4  e9cd0108          STRD     r0,r1,[sp,#0x20]
0014f8  ed9d0b0a          VLDR     d0,[sp,#0x28]
0014fc  ec532b10          VMOV     r2,r3,d0
001500  ed9d0b08          VLDR     d0,[sp,#0x20]
001504  ec510b10          VMOV     r0,r1,d0
001508  f7fffffe          BL       __aeabi_dadd
00150c  e9cd010c          STRD     r0,r1,[sp,#0x30]
001510  ed9d0b0e          VLDR     d0,[sp,#0x38]
001514  ec532b10          VMOV     r2,r3,d0
001518  ed9d0b0c          VLDR     d0,[sp,#0x30]
00151c  ec510b10          VMOV     r0,r1,d0
001520  f7fffffe          BL       __aeabi_dadd
001524  e9cd0110          STRD     r0,r1,[sp,#0x40]
001528  ed9d0b12          VLDR     d0,[sp,#0x48]
00152c  ec532b10          VMOV     r2,r3,d0
001530  ed9d0b10          VLDR     d0,[sp,#0x40]
001534  ec510b10          VMOV     r0,r1,d0
001538  f7fffffe          BL       __aeabi_dadd
00153c  e9cd0114          STRD     r0,r1,[sp,#0x50]
001540  e008              B        |L5.5460|
001542  0000              DCW      0x0000
                  |L5.5444|
                          DCD      bart_y
                  |L5.5448|
                          DCD      bart_a
                  |L5.5452|
                          DCD      bart_x
                  |L5.5456|
                          DCD      bart_b
                  |L5.5460|
001554  ed9d0b16          VLDR     d0,[sp,#0x58]
001558  ec532b10          VMOV     r2,r3,d0
00155c  ed9d0b14          VLDR     d0,[sp,#0x50]
001560  ec510b10          VMOV     r0,r1,d0
001564  f7fffffe          BL       __aeabi_dadd
001568  e9cd0118          STRD     r0,r1,[sp,#0x60]
00156c  ed9d0b1a          VLDR     d0,[sp,#0x68]
001570  ec532b10          VMOV     r2,r3,d0
001574  ed9d0b18          VLDR     d0,[sp,#0x60]
001578  ec510b10          VMOV     r0,r1,d0
00157c  f7fffffe          BL       __aeabi_dadd
001580  e9cd011c          STRD     r0,r1,[sp,#0x70]
001584  ed9d0b1e          VLDR     d0,[sp,#0x78]
001588  ec532b10          VMOV     r2,r3,d0
00158c  ed9d0b1c          VLDR     d0,[sp,#0x70]
001590  ec510b10          VMOV     r0,r1,d0
001594  f7fffffe          BL       __aeabi_dadd
001598  e9cd0120          STRD     r0,r1,[sp,#0x80]
00159c  ed9d0b22          VLDR     d0,[sp,#0x88]
0015a0  ec532b10          VMOV     r2,r3,d0
0015a4  ed9d0b20          VLDR     d0,[sp,#0x80]
0015a8  ec510b10          VMOV     r0,r1,d0
0015ac  f7fffffe          BL       __aeabi_dadd
0015b0  e9cd0124          STRD     r0,r1,[sp,#0x90]
0015b4  ed9d0b26          VLDR     d0,[sp,#0x98]
0015b8  ec532b10          VMOV     r2,r3,d0
0015bc  ed9d0b24          VLDR     d0,[sp,#0x90]
0015c0  ec510b10          VMOV     r0,r1,d0
0015c4  f7fffffe          BL       __aeabi_dsub
0015c8  4a29              LDR      r2,|L5.5744|
0015ca  e9c20110          STRD     r0,r1,[r2,#0x40]
;;;1168   		             bart_b[5] * bart_x[3] + bart_b[6] * bart_x[2] + bart_b[7] * bart_x[1]+ bart_b[8] * bart_x[0])- 
;;;1169   		            (bart_a[1] * bart_y[7] + bart_a[2] * bart_y[6] + bart_a[3] * bart_y[5]+ bart_a[4] * bart_y[4] +
;;;1170   		             bart_a[5] * bart_y[3] + bart_a[6] * bart_y[2] + bart_a[7] * bart_y[1]+ bart_a[8] * bart_y[0]);
;;;1171   
;;;1172   		if(bart_count < 500)
0015ce  4829              LDR      r0,|L5.5748|
0015d0  6800              LDR      r0,[r0,#0]  ; bart_count
0015d2  f5b07ffa          CMP      r0,#0x1f4
0015d6  da02              BGE      |L5.5598|
;;;1173   		{
;;;1174   			biaozhi_bart = 1;
0015d8  2001              MOVS     r0,#1
0015da  4927              LDR      r1,|L5.5752|
0015dc  6008              STR      r0,[r1,#0]  ; biaozhi_bart
                  |L5.5598|
;;;1175   			
;;;1176   		}	
;;;1177   		
;;;1178   		if(bart_count > 500)
0015de  4825              LDR      r0,|L5.5748|
0015e0  6800              LDR      r0,[r0,#0]  ; bart_count
0015e2  f5b07ffa          CMP      r0,#0x1f4
0015e6  dd1c              BLE      |L5.5666|
;;;1179   		{
;;;1180   			biaozhi_bart = 2;
0015e8  2002              MOVS     r0,#2
0015ea  4923              LDR      r1,|L5.5752|
0015ec  6008              STR      r0,[r1,#0]  ; biaozhi_bart
;;;1181   			sum_lb_bart = (int16_t)(bart_y[8]+200);
0015ee  4820              LDR      r0,|L5.5744|
0015f0  ed900b10          VLDR     d0,[r0,#0x40]
0015f4  ed8d0b24          VSTR     d0,[sp,#0x90]
0015f8  ed9f0b20          VLDR     d0,|L5.5756|
0015fc  ec532b10          VMOV     r2,r3,d0
001600  ed9d0b24          VLDR     d0,[sp,#0x90]
001604  ec510b10          VMOV     r0,r1,d0
001608  f7fffffe          BL       __aeabi_dadd
00160c  e9cd0126          STRD     r0,r1,[sp,#0x98]
001610  ed9d0b26          VLDR     d0,[sp,#0x98]
001614  ec510b10          VMOV     r0,r1,d0
001618  f7fffffe          BL       __aeabi_d2iz
00161c  b200              SXTH     r0,r0
00161e  4919              LDR      r1,|L5.5764|
001620  8008              STRH     r0,[r1,#0]
                  |L5.5666|
;;;1182   			
;;;1183   		}
;;;1184   		for( bart_l=0;bart_l<8;bart_l++)
001622  2000              MOVS     r0,#0
001624  9028              STR      r0,[sp,#0xa0]
001626  e01a              B        |L5.5726|
                  |L5.5672|
;;;1185   		{
;;;1186   			bart_x[bart_l]=bart_x[bart_l+1];
001628  4917              LDR      r1,|L5.5768|
00162a  9828              LDR      r0,[sp,#0xa0]
00162c  1c40              ADDS     r0,r0,#1
00162e  eb0100c0          ADD      r0,r1,r0,LSL #3
001632  ed900b00          VLDR     d0,[r0,#0]
001636  9828              LDR      r0,[sp,#0xa0]
001638  eb0100c0          ADD      r0,r1,r0,LSL #3
00163c  ed800b00          VSTR     d0,[r0,#0]
;;;1187   			bart_y[bart_l]=bart_y[bart_l+1];
001640  490b              LDR      r1,|L5.5744|
001642  9828              LDR      r0,[sp,#0xa0]
001644  1c40              ADDS     r0,r0,#1
001646  eb0100c0          ADD      r0,r1,r0,LSL #3
00164a  ed900b00          VLDR     d0,[r0,#0]
00164e  9828              LDR      r0,[sp,#0xa0]
001650  eb0100c0          ADD      r0,r1,r0,LSL #3
001654  ed800b00          VSTR     d0,[r0,#0]
001658  9828              LDR      r0,[sp,#0xa0]         ;1184
00165a  1c40              ADDS     r0,r0,#1              ;1184
00165c  9028              STR      r0,[sp,#0xa0]         ;1184
                  |L5.5726|
00165e  9828              LDR      r0,[sp,#0xa0]         ;1184
001660  2808              CMP      r0,#8                 ;1184
001662  dbe1              BLT      |L5.5672|
;;;1188   		}
;;;1189   		bart_count_x = 8;
001664  2008              MOVS     r0,#8
001666  4909              LDR      r1,|L5.5772|
001668  7008              STRB     r0,[r1,#0]
                  |L5.5738|
;;;1190   		
;;;1191   	}	
;;;1192   	
;;;1193   	
;;;1194   
;;;1195   	
;;;1196   	
;;;1197   	 
;;;1198   
;;;1199   }
00166a  b029              ADD      sp,sp,#0xa4
00166c  bd00              POP      {pc}
;;;1200   
                          ENDP

00166e  0000              DCW      0x0000
                  |L5.5744|
                          DCD      bart_y
                  |L5.5748|
                          DCD      bart_count
                  |L5.5752|
                          DCD      biaozhi_bart
                  |L5.5756|
00167c  00000000          DCFD     0x4069000000000000 ; 200
001680  40690000
                  |L5.5764|
                          DCD      sum_lb_bart
                  |L5.5768|
                          DCD      bart_x
                  |L5.5772|
                          DCD      bart_count_x

                          AREA ||i.delay_us||, CODE, READONLY, ALIGN=1

                  delay_us PROC
;;;79     
;;;80     void delay_us(uint32_t delay_us)
000000  b50c              PUSH     {r2,r3,lr}
;;;81     {
;;;82       volatile unsigned int num;
;;;83       volatile unsigned int t;
;;;84     
;;;85       for (num = 0; num < delay_us; num++)
000002  2100              MOVS     r1,#0
000004  9101              STR      r1,[sp,#4]
000006  e00b              B        |L6.32|
                  |L6.8|
;;;86       {
;;;87         t = 11;
000008  210b              MOVS     r1,#0xb
00000a  9100              STR      r1,[sp,#0]
;;;88         while (t != 0)
00000c  e002              B        |L6.20|
                  |L6.14|
;;;89         {
;;;90           t--;
00000e  9900              LDR      r1,[sp,#0]
000010  1e49              SUBS     r1,r1,#1
000012  9100              STR      r1,[sp,#0]
                  |L6.20|
000014  9900              LDR      r1,[sp,#0]            ;88
000016  2900              CMP      r1,#0                 ;88
000018  d1f9              BNE      |L6.14|
00001a  9901              LDR      r1,[sp,#4]            ;85
00001c  1c49              ADDS     r1,r1,#1              ;85
00001e  9101              STR      r1,[sp,#4]            ;85
                  |L6.32|
000020  9901              LDR      r1,[sp,#4]            ;85
000022  4281              CMP      r1,r0                 ;85
000024  d3f0              BCC      |L6.8|
;;;91         }
;;;92       }
;;;93     }
000026  bd0c              POP      {r2,r3,pc}
;;;94     
                          ENDP


                          AREA ||i.main||, CODE, READONLY, ALIGN=2

                          REQUIRE _printf_percent
                          REQUIRE _printf_d
                          REQUIRE _printf_int_dec
                  main PROC
;;;102    */
;;;103    int main(void)
000000  ed2d8b08          VPUSH    {d8-d11}
;;;104    {
000004  f5ad6da7          SUB      sp,sp,#0x538
;;;105    	delay_us(100000);//短暂延时，确保外设供电
000008  48f8              LDR      r0,|L7.1004|
00000a  f7fffffe          BL       delay_us
;;;106    
;;;107    //	uint8_t ucKeyCode;
;;;108    	uint8_t ucRefresh = 0;
00000e  2600              MOVS     r6,#0
;;;109    	uint8_t ucFifoMode =0;//1;均值 2：采集 3：停止
000010  2700              MOVS     r7,#0
;;;110    //	uint16_t storage = 0;
;;;111    	uint16_t reset = 0;
000012  2500              MOVS     r5,#0
;;;112    	//int16_t sum;外部定义
;;;113    	int32_t add[6];
;;;114    	int16_t ave[7];
;;;115    	//int16_t chan[6];
;;;116    	char buffer[48] = "位置,通道1,通道2,通道3,通道4,通道5,通道6,和通道\n" ;
000014  2230              MOVS     r2,#0x30
000016  a1f6              ADR      r1,|L7.1008|
000018  f50d609c          ADD      r0,sp,#0x4e0
00001c  f7fffffe          BL       __aeabi_memcpy4
;;;117    	int16_t middle = 151;
000020  f04f0897          MOV      r8,#0x97
;;;118    	int16_t end = 302;
000024  f44f7997          MOV      r9,#0x12e
;;;119    
;;;120    	
;;;121    	uint16_t Mark = 0;
000028  2400              MOVS     r4,#0
;;;122    	uint8_t Calibration = 0;
00002a  46a3              MOV      r11,r4
;;;123    	int16_t channel[6];
;;;124    	int16_t sumchannel;
;;;125    	int32_t num;
;;;126    	int32_t len;
;;;127    
;;;128    
;;;129    	char BUF0[5];
;;;130    	char BUF1[5];
;;;131    	char BUF2[5];
;;;132    	char BUF3[5];
;;;133    	char BUF4[5];
;;;134    	char BUF5[5];
;;;135    	char BUF6[6];
;;;136    	char BUF8[10];
;;;137    	
;;;138    	FATFS fs;
;;;139    	FIL file;
;;;140      DIR DirInf;
;;;141    	uint32_t bw;
;;;142    	
;;;143    
;;;144    	
;;;145    	bsp_Init();
00002c  f7fffffe          BL       bsp_Init
;;;146    	
;;;147    	//bsp_DelayMS(500);
;;;148    
;;;149    
;;;150    	
;;;151    	#ifdef USE_USB_OTG_FS
;;;152    		USBH_Init(&USB_OTG_Core,
;;;153    			USB_OTG_FS_CORE_ID,
;;;154                &USB_Host,
;;;155                &USBH_MSC_cb,
;;;156                &USR_cb);
;;;157    	#else
;;;158    		USBH_Init(&USB_OTG_Core,
000030  48fb              LDR      r0,|L7.1056|
000032  4bfc              LDR      r3,|L7.1060|
000034  4afc              LDR      r2,|L7.1064|
000036  2100              MOVS     r1,#0
000038  9000              STR      r0,[sp,#0]
00003a  48fc              LDR      r0,|L7.1068|
00003c  f7fffffe          BL       USBH_Init
;;;159    			USB_OTG_HS_CORE_ID,
;;;160                &USB_Host,
;;;161                &USBH_MSC_cb,
;;;162                &USR_cb);
;;;163    	#endif
;;;164    
;;;165    
;;;166    
;;;167    	 	/* AD7606进入普通工作模式 */
;;;168    	
;;;169    
;;;170    	bsp_InitAD7606();	/* 配置AD7606所用的GPIO */
000040  f7fffffe          BL       bsp_InitAD7606
;;;171    
;;;172    	AD7606_SetOS(AD_OS_NO);		/* 无过采样 */
000044  2000              MOVS     r0,#0
000046  f7fffffe          BL       AD7606_SetOS
;;;173    	AD7606_SetInputRange(0);	/* 0表示输入量程为正负5V, 1表示正负10V */
00004a  2000              MOVS     r0,#0
00004c  f7fffffe          BL       AD7606_SetInputRange
;;;174    	AD7606_StartConvst();		/* 启动1次转换 */
000050  f7fffffe          BL       AD7606_StartConvst
;;;175    	ucRefresh = 0;
000054  bf00              NOP      
;;;176    	Encoder_Init();
000056  f7fffffe          BL       Encoder_Init
;;;177    	
;;;178    	while (1)
00005a  f000bf68          B.W      |L7.3886|
                  |L7.94|
;;;179    	{
;;;180    		bsp_Idle();		/* 空闲时执行的函数,比如喂狗. 在bsp.c中 */
00005e  f7fffffe          BL       bsp_Idle
;;;181        USBH_Process(&USB_OTG_Core, &USB_Host);
000062  49f1              LDR      r1,|L7.1064|
000064  48f1              LDR      r0,|L7.1068|
000066  f7fffffe          BL       USBH_Process
;;;182    
;;;183    		
;;;184    /*
;;;185    *********************************************************************************************************
;;;186    *	按键扫描
;;;187    *********************************************************************************************************
;;;188    */
;;;189    		
;;;190    
;;;191     if(USART_RX_STA&0x8000)
00006a  48f1              LDR      r0,|L7.1072|
00006c  8800              LDRH     r0,[r0,#0]  ; USART_RX_STA
00006e  f4004000          AND      r0,r0,#0x8000
000072  2800              CMP      r0,#0
000074  d033              BEQ      |L7.222|
;;;192     {
;;;193    	if(USART_RX_BUF[5] == 0x20 && USART_RX_BUF[7] == 0x03)////开始暂停
000076  48ef              LDR      r0,|L7.1076|
000078  7940              LDRB     r0,[r0,#5]  ; USART_RX_BUF
00007a  2820              CMP      r0,#0x20
00007c  d123              BNE      |L7.198|
00007e  48ed              LDR      r0,|L7.1076|
000080  79c0              LDRB     r0,[r0,#7]  ; USART_RX_BUF
000082  2803              CMP      r0,#3
000084  d11f              BNE      |L7.198|
;;;194    		{
;;;195    			ucFifoMode = 1;
000086  2701              MOVS     r7,#1
;;;196    			bsp_StartAutoTimer(0, 2);	
000088  2102              MOVS     r1,#2
00008a  2000              MOVS     r0,#0
00008c  f7fffffe          BL       bsp_StartAutoTimer
;;;197    
;;;198    			add[0] = 0;
000090  2000              MOVS     r0,#0
000092  f8cd0520          STR      r0,[sp,#0x520]
;;;199    			add[1] = 0;
000096  f8cd0524          STR      r0,[sp,#0x524]
;;;200    			add[2] = 0;
00009a  f8cd0528          STR      r0,[sp,#0x528]
;;;201    			add[3] = 0;
00009e  f8cd052c          STR      r0,[sp,#0x52c]
;;;202    			add[4] = 0;
0000a2  f8cd0530          STR      r0,[sp,#0x530]
;;;203    			add[5] = 0;
0000a6  f8cd0534          STR      r0,[sp,#0x534]
;;;204    															
;;;205    			ave[0] = 0;
0000aa  f8ad0510          STRH     r0,[sp,#0x510]
;;;206    			ave[1] = 0;
0000ae  f8ad0512          STRH     r0,[sp,#0x512]
;;;207    			ave[2] = 0;
0000b2  f8ad0514          STRH     r0,[sp,#0x514]
;;;208    			ave[3] = 0;
0000b6  f8ad0516          STRH     r0,[sp,#0x516]
;;;209    			ave[4] = 0;
0000ba  f8ad0518          STRH     r0,[sp,#0x518]
;;;210    			ave[5] = 0;
0000be  f8ad051a          STRH     r0,[sp,#0x51a]
;;;211    			ave[6] = 0;
0000c2  f8ad051c          STRH     r0,[sp,#0x51c]
                  |L7.198|
;;;212    
;;;213    		}
;;;214    	
;;;215     if(USART_RX_BUF[5] == 0x10 && USART_RX_BUF[7] == 0x01)//停止采集
0000c6  48db              LDR      r0,|L7.1076|
0000c8  7940              LDRB     r0,[r0,#5]  ; USART_RX_BUF
0000ca  2810              CMP      r0,#0x10
0000cc  d104              BNE      |L7.216|
0000ce  48d9              LDR      r0,|L7.1076|
0000d0  79c0              LDRB     r0,[r0,#7]  ; USART_RX_BUF
0000d2  2801              CMP      r0,#1
0000d4  d100              BNE      |L7.216|
;;;216    		{																	
;;;217    			ucFifoMode = 3;
0000d6  2703              MOVS     r7,#3
                  |L7.216|
;;;218    		}		
;;;219    	USART_RX_STA=0;
0000d8  2000              MOVS     r0,#0
0000da  49d5              LDR      r1,|L7.1072|
0000dc  8008              STRH     r0,[r1,#0]
                  |L7.222|
;;;220    	}
;;;221    		 
;;;222    /*
;;;223    *********************************************************************************************************
;;;224    *	Cortex-M3 内核异常中断服务程序
;;;225    *********************************************************************************************************
;;;226    */
;;;227    	
;;;228    
;;;229    if (ucFifoMode == 3)	
0000de  2f03              CMP      r7,#3
0000e0  d107              BNE      |L7.242|
;;;230    	{
;;;231    		bsp_StopTimer(1);
0000e2  2001              MOVS     r0,#1
0000e4  f7fffffe          BL       bsp_StopTimer
;;;232    		AD7606_StopRecord();
0000e8  f7fffffe          BL       AD7606_StopRecord
;;;233    		f_close(&file);
0000ec  a80b              ADD      r0,sp,#0x2c
0000ee  f7fffffe          BL       f_close
                  |L7.242|
;;;234    //		ucFifoMode = 0;
;;;235    	}
;;;236    		
;;;237    /*
;;;238    *********************************************************************************************************
;;;239    *	计算标定值
;;;240    *********************************************************************************************************
;;;241    */
;;;242    										
;;;243    			
;;;244    			
;;;245    	if (ucFifoMode == 1)	/* 计算500个数的均值 */
0000f2  2f01              CMP      r7,#1
                  |L7.244|
0000f4  d17e              BNE      |L7.500|
;;;246    		{
;;;247    
;;;248    
;;;249    			if (bsp_CheckTimer(0))
0000f6  2000              MOVS     r0,#0
0000f8  f7fffffe          BL       bsp_CheckTimer
0000fc  b120              CBZ      r0,|L7.264|
;;;250    			{
;;;251    				/* 每隔xms 进来一次. 由软件启动转换 */
;;;252    				AD7606_ReadNowAdc();		/* 读取采样结果 */
0000fe  f7fffffe          BL       AD7606_ReadNowAdc
;;;253    				AD7606_StartConvst();		/* 启动下次转换 */
000102  f7fffffe          BL       AD7606_StartConvst
;;;254    				ucRefresh = 1;	/* 刷新显示 */
000106  2601              MOVS     r6,#1
                  |L7.264|
;;;255    			}
;;;256    			
;;;257    			if (ucRefresh == 1)
000108  2e01              CMP      r6,#1
00010a  d1f3              BNE      |L7.244|
;;;258    				{	
;;;259    					ucRefresh = 0;
00010c  2600              MOVS     r6,#0
;;;260    					reset++;
00010e  1c68              ADDS     r0,r5,#1
000110  b285              UXTH     r5,r0
;;;261    					if(reset>100&&reset<=600)
000112  2d64              CMP      r5,#0x64
000114  dd7d              BLE      |L7.530|
000116  f5b57f16          CMP      r5,#0x258
00011a  dc7a              BGT      |L7.530|
;;;262    					{
;;;263    					//计算幅值和编码器距离
;;;264    					chan[0] = g_tAD7606.sNowAdc[0]*5000/32768;
00011c  49c6              LDR      r1,|L7.1080|
00011e  8849              LDRH     r1,[r1,#2]  ; g_tAD7606
000120  f2413288          MOV      r2,#0x1388
000124  fb11f002          SMULBB   r0,r1,r2
000128  17c1              ASRS     r1,r0,#31
00012a  eb004151          ADD      r1,r0,r1,LSR #17
00012e  13c9              ASRS     r1,r1,#15
000130  4ac2              LDR      r2,|L7.1084|
000132  8011              STRH     r1,[r2,#0]
;;;265    					chan[1] = g_tAD7606.sNowAdc[1]*5000/32768;
000134  49c0              LDR      r1,|L7.1080|
000136  8889              LDRH     r1,[r1,#4]
000138  f2413288          MOV      r2,#0x1388
00013c  fb11f002          SMULBB   r0,r1,r2
000140  17c1              ASRS     r1,r0,#31
000142  eb004151          ADD      r1,r0,r1,LSR #17
000146  13c9              ASRS     r1,r1,#15
000148  4abc              LDR      r2,|L7.1084|
00014a  8051              STRH     r1,[r2,#2]
;;;266    					chan[2] = g_tAD7606.sNowAdc[2]*5000/32768;
00014c  49ba              LDR      r1,|L7.1080|
00014e  88c9              LDRH     r1,[r1,#6]
000150  f2413288          MOV      r2,#0x1388
000154  fb11f002          SMULBB   r0,r1,r2
000158  17c1              ASRS     r1,r0,#31
00015a  eb004151          ADD      r1,r0,r1,LSR #17
00015e  13c9              ASRS     r1,r1,#15
000160  4ab6              LDR      r2,|L7.1084|
000162  8091              STRH     r1,[r2,#4]
;;;267    					chan[3] = g_tAD7606.sNowAdc[3]*5000/32768;
000164  49b4              LDR      r1,|L7.1080|
000166  8909              LDRH     r1,[r1,#8]
000168  f2413288          MOV      r2,#0x1388
00016c  fb11f002          SMULBB   r0,r1,r2
000170  17c1              ASRS     r1,r0,#31
000172  eb004151          ADD      r1,r0,r1,LSR #17
000176  13c9              ASRS     r1,r1,#15
000178  4ab0              LDR      r2,|L7.1084|
00017a  80d1              STRH     r1,[r2,#6]
;;;268    					chan[4] = g_tAD7606.sNowAdc[4]*5000/32768;
00017c  49ae              LDR      r1,|L7.1080|
00017e  8949              LDRH     r1,[r1,#0xa]
000180  f2413288          MOV      r2,#0x1388
000184  fb11f002          SMULBB   r0,r1,r2
000188  17c1              ASRS     r1,r0,#31
00018a  eb004151          ADD      r1,r0,r1,LSR #17
00018e  13c9              ASRS     r1,r1,#15
000190  4aaa              LDR      r2,|L7.1084|
000192  8111              STRH     r1,[r2,#8]
;;;269    					chan[5] = g_tAD7606.sNowAdc[5]*5000/32768;
000194  49a8              LDR      r1,|L7.1080|
000196  8989              LDRH     r1,[r1,#0xc]
000198  f2413288          MOV      r2,#0x1388
00019c  fb11f002          SMULBB   r0,r1,r2
0001a0  17c1              ASRS     r1,r0,#31
0001a2  eb004151          ADD      r1,r0,r1,LSR #17
0001a6  13c9              ASRS     r1,r1,#15
0001a8  4aa4              LDR      r2,|L7.1084|
0001aa  8151              STRH     r1,[r2,#0xa]
;;;270    					
;;;271    					add[0] = add[0] + chan[0];
0001ac  4611              MOV      r1,r2
0001ae  f9b11000          LDRSH    r1,[r1,#0]  ; chan
0001b2  f8dd0520          LDR      r0,[sp,#0x520]
0001b6  4408              ADD      r0,r0,r1
0001b8  f8cd0520          STR      r0,[sp,#0x520]
;;;272    					add[1] = add[1] + chan[1];
0001bc  4611              MOV      r1,r2
0001be  f9b11002          LDRSH    r1,[r1,#2]  ; chan
0001c2  f8dd0524          LDR      r0,[sp,#0x524]
0001c6  4408              ADD      r0,r0,r1
0001c8  f8cd0524          STR      r0,[sp,#0x524]
;;;273    					add[2] = add[2] + chan[2];
0001cc  4611              MOV      r1,r2
0001ce  f9b11004          LDRSH    r1,[r1,#4]  ; chan
0001d2  f8dd0528          LDR      r0,[sp,#0x528]
0001d6  4408              ADD      r0,r0,r1
0001d8  f8cd0528          STR      r0,[sp,#0x528]
;;;274    					add[3] = add[3] + chan[3];
0001dc  4611              MOV      r1,r2
0001de  f9b11006          LDRSH    r1,[r1,#6]  ; chan
0001e2  f8dd052c          LDR      r0,[sp,#0x52c]
0001e6  4408              ADD      r0,r0,r1
0001e8  f8cd052c          STR      r0,[sp,#0x52c]
;;;275    					add[4] = add[4] + chan[4];
0001ec  4611              MOV      r1,r2
0001ee  f9b11008          LDRSH    r1,[r1,#8]  ; chan
0001f2  e001              B        |L7.504|
                  |L7.500|
0001f4  e078              B        |L7.744|
0001f6  e00c              B        |L7.530|
                  |L7.504|
0001f8  f8dd0530          LDR      r0,[sp,#0x530]
0001fc  4408              ADD      r0,r0,r1
0001fe  f8cd0530          STR      r0,[sp,#0x530]
;;;276    					add[5] = add[5] + chan[5];
000202  4611              MOV      r1,r2
000204  f9b1100a          LDRSH    r1,[r1,#0xa]  ; chan
000208  f8dd0534          LDR      r0,[sp,#0x534]
00020c  4408              ADD      r0,r0,r1
00020e  f8cd0534          STR      r0,[sp,#0x534]
                  |L7.530|
;;;277    					}									
;;;278    
;;;279    					if(reset==600)
000212  f5b57f16          CMP      r5,#0x258
000216  d167              BNE      |L7.744|
;;;280    					{
;;;281    						reset=0;
000218  2500              MOVS     r5,#0
;;;282    						ave[0] = add[0]/500;
00021a  f44f71fa          MOV      r1,#0x1f4
00021e  f8dd0520          LDR      r0,[sp,#0x520]
000222  fb90f0f1          SDIV     r0,r0,r1
000226  b200              SXTH     r0,r0
000228  f8ad0510          STRH     r0,[sp,#0x510]
;;;283    						ave[1] = add[1]/500;
00022c  f8dd0524          LDR      r0,[sp,#0x524]
000230  fb90f0f1          SDIV     r0,r0,r1
000234  b200              SXTH     r0,r0
000236  f8ad0512          STRH     r0,[sp,#0x512]
;;;284    						ave[2] = add[2]/500;
00023a  f8dd0528          LDR      r0,[sp,#0x528]
00023e  fb90f0f1          SDIV     r0,r0,r1
000242  b200              SXTH     r0,r0
000244  f8ad0514          STRH     r0,[sp,#0x514]
;;;285    						ave[3] = add[3]/500;
000248  f8dd052c          LDR      r0,[sp,#0x52c]
00024c  fb90f0f1          SDIV     r0,r0,r1
000250  b200              SXTH     r0,r0
000252  f8ad0516          STRH     r0,[sp,#0x516]
;;;286    						ave[4] = add[4]/500;
000256  f8dd0530          LDR      r0,[sp,#0x530]
00025a  fb90f0f1          SDIV     r0,r0,r1
00025e  b200              SXTH     r0,r0
000260  f8ad0518          STRH     r0,[sp,#0x518]
;;;287    						ave[5] = add[5]/500;
000264  f8dd0534          LDR      r0,[sp,#0x534]
000268  fb90f0f1          SDIV     r0,r0,r1
00026c  b200              SXTH     r0,r0
00026e  f8ad051a          STRH     r0,[sp,#0x51a]
;;;288    						ave[6] = ave[0]+ave[1]+ave[2]+ave[3]+ave[4]+ave[5];
000272  f8bd0510          LDRH     r0,[sp,#0x510]
000276  f8bd1512          LDRH     r1,[sp,#0x512]
00027a  4408              ADD      r0,r0,r1
00027c  f8bd1514          LDRH     r1,[sp,#0x514]
000280  4408              ADD      r0,r0,r1
000282  f8bd1516          LDRH     r1,[sp,#0x516]
000286  4408              ADD      r0,r0,r1
000288  f8bd1518          LDRH     r1,[sp,#0x518]
00028c  4408              ADD      r0,r0,r1
00028e  f8bd151a          LDRH     r1,[sp,#0x51a]
000292  4408              ADD      r0,r0,r1
000294  b200              SXTH     r0,r0
000296  f8ad051c          STRH     r0,[sp,#0x51c]
;;;289    
;;;290    						bsp_StopTimer(0);
00029a  2000              MOVS     r0,#0
00029c  f7fffffe          BL       bsp_StopTimer
;;;291    						ucFifoMode = 2;
0002a0  2702              MOVS     r7,#2
;;;292    						//显示时间更改
;;;293    						bsp_StartAutoTimer(1, 20);	
0002a2  2114              MOVS     r1,#0x14
0002a4  2001              MOVS     r0,#1
0002a6  f7fffffe          BL       bsp_StartAutoTimer
;;;294    						
;;;295    						
;;;296    						
;;;297    						
;;;298    						f_mount(FS_USB, &fs);
0002aa  a995              ADD      r1,sp,#0x254
0002ac  2000              MOVS     r0,#0
0002ae  f7fffffe          BL       f_mount
;;;299    						f_opendir(&DirInf, "/");
0002b2  a163              ADR      r1,|L7.1088|
0002b4  a802              ADD      r0,sp,#8
0002b6  f7fffffe          BL       f_opendir
;;;300    						f_open(&file, "采集数据.csv", FA_OPEN_ALWAYS | FA_WRITE);
0002ba  2212              MOVS     r2,#0x12
0002bc  a161              ADR      r1,|L7.1092|
0002be  a80b              ADD      r0,sp,#0x2c
0002c0  f7fffffe          BL       f_open
;;;301    						f_lseek(&file,f_size(&file));
0002c4  a80b              ADD      r0,sp,#0x2c
0002c6  990e              LDR      r1,[sp,#0x38]
0002c8  f7fffffe          BL       f_lseek
;;;302    						f_write(&file,  buffer, sizeof(buffer), &bw);
0002cc  ab01              ADD      r3,sp,#4
0002ce  2230              MOVS     r2,#0x30
0002d0  f50d619c          ADD      r1,sp,#0x4e0
0002d4  a80b              ADD      r0,sp,#0x2c
0002d6  f7fffffe          BL       f_write
;;;303    						f_sync(&file);
0002da  a80b              ADD      r0,sp,#0x2c
0002dc  f7fffffe          BL       f_sync
;;;304    						
;;;305    						//设置采集频率
;;;306    						AD7606_StartRecord(2000);
0002e0  f44f60fa          MOV      r0,#0x7d0
0002e4  f7fffffe          BL       AD7606_StartRecord
                  |L7.744|
;;;307    
;;;308    					}
;;;309    			  }
;;;310    
;;;311    	}
;;;312    
;;;313    			
;;;314    /*
;;;315    *********************************************************************************************************
;;;316    *	采集存储
;;;317    *********************************************************************************************************
;;;318    */
;;;319    		
;;;320    
;;;321    	if (ucFifoMode == 2)	/* AD7606 普通工作模式 */
0002e8  2f02              CMP      r7,#2
                  |L7.746|
0002ea  d17d              BNE      |L7.1000|
;;;322    	{
;;;323    
;;;324    		
;;;325    		if (bsp_CheckTimer(1))
0002ec  2001              MOVS     r0,#1
0002ee  f7fffffe          BL       bsp_CheckTimer
0002f2  b100              CBZ      r0,|L7.758|
;;;326    			{
;;;327    				ucRefresh = 2;	/* 刷新显示 */
0002f4  2602              MOVS     r6,#2
                  |L7.758|
;;;328    			}
;;;329    
;;;330    		
;;;331    		if (ucRefresh == 2)
0002f6  2e02              CMP      r6,#2
0002f8  d1f7              BNE      |L7.746|
;;;332    			{	
;;;333    				ucRefresh = 0;
0002fa  2600              MOVS     r6,#0
;;;334    
;;;335    				//计算幅值和编码器距离
;;;336    				chan[0] = g_tAD7606.sNowAdc[0]*5000/32768+200-ave[0];
0002fc  494e              LDR      r1,|L7.1080|
0002fe  8849              LDRH     r1,[r1,#2]  ; g_tAD7606
000300  f2413288          MOV      r2,#0x1388
000304  fb11f002          SMULBB   r0,r1,r2
000308  17c1              ASRS     r1,r0,#31
00030a  eb004151          ADD      r1,r0,r1,LSR #17
00030e  13c9              ASRS     r1,r1,#15
000310  31c8              ADDS     r1,r1,#0xc8
000312  f8bd2510          LDRH     r2,[sp,#0x510]
000316  1a89              SUBS     r1,r1,r2
000318  b209              SXTH     r1,r1
00031a  4a48              LDR      r2,|L7.1084|
00031c  8011              STRH     r1,[r2,#0]
;;;337    				chan[1] = g_tAD7606.sNowAdc[1]*5000/32768+200-ave[1];
00031e  4946              LDR      r1,|L7.1080|
000320  8889              LDRH     r1,[r1,#4]
000322  f2413288          MOV      r2,#0x1388
000326  fb11f002          SMULBB   r0,r1,r2
00032a  17c1              ASRS     r1,r0,#31
00032c  eb004151          ADD      r1,r0,r1,LSR #17
000330  13c9              ASRS     r1,r1,#15
000332  31c8              ADDS     r1,r1,#0xc8
000334  f8bd2512          LDRH     r2,[sp,#0x512]
000338  1a89              SUBS     r1,r1,r2
00033a  b209              SXTH     r1,r1
00033c  4a3f              LDR      r2,|L7.1084|
00033e  8051              STRH     r1,[r2,#2]
;;;338    				chan[2] = g_tAD7606.sNowAdc[2]*5000/32768+200-ave[2];
000340  493d              LDR      r1,|L7.1080|
000342  88c9              LDRH     r1,[r1,#6]
000344  f2413288          MOV      r2,#0x1388
000348  fb11f002          SMULBB   r0,r1,r2
00034c  17c1              ASRS     r1,r0,#31
00034e  eb004151          ADD      r1,r0,r1,LSR #17
000352  13c9              ASRS     r1,r1,#15
000354  31c8              ADDS     r1,r1,#0xc8
000356  f8bd2514          LDRH     r2,[sp,#0x514]
00035a  1a89              SUBS     r1,r1,r2
00035c  b209              SXTH     r1,r1
00035e  4a37              LDR      r2,|L7.1084|
000360  8091              STRH     r1,[r2,#4]
;;;339    				chan[3] = g_tAD7606.sNowAdc[3]*5000/32768+200-ave[3];
000362  4935              LDR      r1,|L7.1080|
000364  8909              LDRH     r1,[r1,#8]
000366  f2413288          MOV      r2,#0x1388
00036a  fb11f002          SMULBB   r0,r1,r2
00036e  17c1              ASRS     r1,r0,#31
000370  eb004151          ADD      r1,r0,r1,LSR #17
000374  13c9              ASRS     r1,r1,#15
000376  31c8              ADDS     r1,r1,#0xc8
000378  f8bd2516          LDRH     r2,[sp,#0x516]
00037c  1a89              SUBS     r1,r1,r2
00037e  b209              SXTH     r1,r1
000380  4a2e              LDR      r2,|L7.1084|
000382  80d1              STRH     r1,[r2,#6]
;;;340    				chan[4] = g_tAD7606.sNowAdc[4]*5000/32768+200-ave[4];
000384  492c              LDR      r1,|L7.1080|
000386  8949              LDRH     r1,[r1,#0xa]
000388  f2413288          MOV      r2,#0x1388
00038c  fb11f002          SMULBB   r0,r1,r2
000390  17c1              ASRS     r1,r0,#31
000392  eb004151          ADD      r1,r0,r1,LSR #17
000396  13c9              ASRS     r1,r1,#15
000398  31c8              ADDS     r1,r1,#0xc8
00039a  f8bd2518          LDRH     r2,[sp,#0x518]
00039e  1a89              SUBS     r1,r1,r2
0003a0  b209              SXTH     r1,r1
0003a2  4a26              LDR      r2,|L7.1084|
0003a4  8111              STRH     r1,[r2,#8]
;;;341    				chan[5] = g_tAD7606.sNowAdc[5]*5000/32768+200-ave[5];
0003a6  4924              LDR      r1,|L7.1080|
0003a8  8989              LDRH     r1,[r1,#0xc]
0003aa  f2413288          MOV      r2,#0x1388
0003ae  fb11f002          SMULBB   r0,r1,r2
0003b2  17c1              ASRS     r1,r0,#31
0003b4  eb004151          ADD      r1,r0,r1,LSR #17
0003b8  13c9              ASRS     r1,r1,#15
0003ba  31c8              ADDS     r1,r1,#0xc8
0003bc  f8bd251a          LDRH     r2,[sp,#0x51a]
0003c0  1a89              SUBS     r1,r1,r2
0003c2  b209              SXTH     r1,r1
0003c4  4a1d              LDR      r2,|L7.1084|
0003c6  8151              STRH     r1,[r2,#0xa]
;;;342    				sum = chan[0]+chan[1]+chan[2]+chan[3]+chan[4]+chan[5]-600;
0003c8  4610              MOV      r0,r2
0003ca  8800              LDRH     r0,[r0,#0]  ; chan
0003cc  4611              MOV      r1,r2
0003ce  8849              LDRH     r1,[r1,#2]  ; chan
0003d0  4408              ADD      r0,r0,r1
0003d2  4611              MOV      r1,r2
0003d4  8889              LDRH     r1,[r1,#4]  ; chan
0003d6  4408              ADD      r0,r0,r1
0003d8  4611              MOV      r1,r2
0003da  88c9              LDRH     r1,[r1,#6]  ; chan
0003dc  4408              ADD      r0,r0,r1
0003de  4611              MOV      r1,r2
0003e0  8909              LDRH     r1,[r1,#8]  ; chan
0003e2  4408              ADD      r0,r0,r1
0003e4  4611              MOV      r1,r2
0003e6  e035              B        |L7.1108|
                  |L7.1000|
0003e8  e0b6              B        |L7.1368|
0003ea  0000              DCW      0x0000
                  |L7.1004|
                          DCD      0x000186a0
                  |L7.1008|
0003f0  cebbd6c3          DCB      206,187,214,195,",",205,168,181,192,"1,",205,168,181,192
0003f4  2ccda8b5
0003f8  c0312ccd
0003fc  a8b5c0  
0003ff  322ccda8          DCB      "2,",205,168,181,192,"3,",205,168,181,192,"4,",205,168,181
000403  b5c0332c
000407  cda8b5c0
00040b  342ccda8
00040f  b5      
000410  c0352ccd          DCB      192,"5,",205,168,181,192,"6,",186,205,205,168,181,192,"\n"
000414  a8b5c036
000418  2cbacdcd
00041c  a8b5c00a
                  |L7.1056|
                          DCD      USR_cb
                  |L7.1060|
                          DCD      USBH_MSC_cb
                  |L7.1064|
                          DCD      USB_Host
                  |L7.1068|
                          DCD      USB_OTG_Core
                  |L7.1072|
                          DCD      USART_RX_STA
                  |L7.1076|
                          DCD      USART_RX_BUF
                  |L7.1080|
                          DCD      g_tAD7606
                  |L7.1084|
                          DCD      chan
                  |L7.1088|
000440  2f00              DCB      "/",0
000442  00                DCB      0
000443  00                DCB      0
                  |L7.1092|
000444  b2c9bcaf          DCB      178,201,188,175,202,253,190,221,".csv",0
000448  cafdbedd
00044c  2e637376
000450  00      
000451  00                DCB      0
000452  00                DCB      0
000453  00                DCB      0
                  |L7.1108|
000454  8949              LDRH     r1,[r1,#0xa]  ; chan
000456  4408              ADD      r0,r0,r1
000458  f5a07016          SUB      r0,r0,#0x258
00045c  b200              SXTH     r0,r0
00045e  49fe              LDR      r1,|L7.2136|
000460  8008              STRH     r0,[r1,#0]
;;;343    /*
;;;344    *********************************************************************************************************
;;;345    *	无滤波发送
;;;346    *********************************************************************************************************
;;;347    */				
;;;348    											 //发送至串口屏
;;;349    //								comSendChar(COM1, 0x5A);
;;;350    //								comSendChar(COM1, 0xA5);
;;;351    //								comSendChar(COM1, 0x10);
;;;352    //								comSendChar(COM1, 0x84);
;;;353    //								comSendChar(COM1, 0x7F);
;;;354    //								comSendHalfword(COM1,sum);
;;;355    //  							comSendHalfword(COM1,chan[0]);
;;;356    //								comSendHalfword(COM1,chan[1]);
;;;357    //								comSendHalfword(COM1,chan[2]);
;;;358    //								comSendHalfword(COM1,chan[3]);
;;;359    //								comSendHalfword(COM1,chan[4]);
;;;360    //								comSendHalfword(COM1,chan[5]);
;;;361    				
;;;362    /*
;;;363    *********************************************************************************************************
;;;364    *	中值滤波发送
;;;365    *********************************************************************************************************
;;;366    */
;;;367    				
;;;368    //        AD7606_Array();
;;;369    
;;;370    
;;;371    //       if(biaozhi_lb==1)
;;;372    //        {
;;;373    //				  sum_lb = chan[0]+chan[1]+chan[2]+chan[3]+chan[4]+chan[5]-400;
;;;374    //						AD7606_Array_1();
;;;375    //					   if(biaozhi_lb_1==1)
;;;376    //						 {					 
;;;377    //							  comSendChar(COM1, 0x5A);
;;;378    //								comSendChar(COM1, 0xA5);
;;;379    //								comSendChar(COM1, 0x12);
;;;380    //								comSendChar(COM1, 0x84);
;;;381    //								comSendChar(COM1, 0xFF);
;;;382    //								comSendHalfword(COM1,sum);
;;;383    //  							comSendHalfword(COM1,chan[0]);
;;;384    //								comSendHalfword(COM1,chan[1]);
;;;385    //								comSendHalfword(COM1,chan[2]);
;;;386    //								comSendHalfword(COM1,chan[3]);
;;;387    //								comSendHalfword(COM1,chan[4]);
;;;388    //								comSendHalfword(COM1,chan[5]);
;;;389    //							 	comSendHalfword(COM1,sum_lb);
;;;390    //							 
;;;391    //								comSendChar(COM1, 0x5A);
;;;392    //								comSendChar(COM1, 0xA5);
;;;393    //								comSendChar(COM1, 0x07);
;;;394    //								comSendChar(COM1, 0x82);
;;;395    //								comSendChar(COM1, 0x00);
;;;396    //								comSendChar(COM1, 0x00);
;;;397    //								comSendword(COM1,len);
;;;398    //							 
;;;399    //							 biaozhi_lb_1=0;
;;;400    //						 }
;;;401    //							 
;;;402    //					
;;;403    //					biaozhi_lb=0;
;;;404    //        }
;;;405    /*
;;;406    *********************************************************************************************************
;;;407    *	巴特沃斯滤波发送
;;;408    *********************************************************************************************************
;;;409    */			
;;;410           bartworth ();
000462  f7fffffe          BL       bartworth
;;;411    
;;;412    //       if(biaozhi_bart == 1)
;;;413    //        {
;;;414    //										comSendChar(COM1, 0x5A);
;;;415    //										comSendChar(COM1, 0xA5);
;;;416    //										comSendChar(COM1, 0x12);
;;;417    //										comSendChar(COM1, 0x84);
;;;418    //										comSendChar(COM1, 0xFF);
;;;419    //										comSendHalfword(COM1,sum);
;;;420    //										comSendHalfword(COM1,chan[0]);
;;;421    //										comSendHalfword(COM1,chan[1]);
;;;422    //										comSendHalfword(COM1,chan[2]);
;;;423    //										comSendHalfword(COM1,chan[3]);
;;;424    //										comSendHalfword(COM1,chan[4]);
;;;425    //										comSendHalfword(COM1,chan[5]);
;;;426    //										comSendHalfword(COM1,sum);
;;;427    //									 
;;;428    //										comSendChar(COM1, 0x5A);
;;;429    //										comSendChar(COM1, 0xA5);
;;;430    //										comSendChar(COM1, 0x07);
;;;431    //										comSendChar(COM1, 0x82);
;;;432    //										comSendChar(COM1, 0x00);
;;;433    //										comSendChar(COM1, 0x00);
;;;434    //										comSendword(COM1,len);
;;;435    //									 
;;;436    //									 biaozhi_bart=0;
;;;437    //        }	
;;;438           if(biaozhi_bart == 2)
000466  48fd              LDR      r0,|L7.2140|
000468  6800              LDR      r0,[r0,#0]  ; biaozhi_bart
00046a  2802              CMP      r0,#2
00046c  d174              BNE      |L7.1368|
;;;439            {
;;;440    							  comSendChar(COM1, 0x5A);
00046e  215a              MOVS     r1,#0x5a
000470  2000              MOVS     r0,#0
000472  f7fffffe          BL       comSendChar
;;;441    								comSendChar(COM1, 0xA5);
000476  21a5              MOVS     r1,#0xa5
000478  2000              MOVS     r0,#0
00047a  f7fffffe          BL       comSendChar
;;;442    								comSendChar(COM1, 0x12);
00047e  2112              MOVS     r1,#0x12
000480  2000              MOVS     r0,#0
000482  f7fffffe          BL       comSendChar
;;;443    								comSendChar(COM1, 0x84);
000486  2184              MOVS     r1,#0x84
000488  2000              MOVS     r0,#0
00048a  f7fffffe          BL       comSendChar
;;;444    								comSendChar(COM1, 0xFF);
00048e  21ff              MOVS     r1,#0xff
000490  2000              MOVS     r0,#0
000492  f7fffffe          BL       comSendChar
;;;445    								comSendHalfword(COM1,sum);
000496  48f0              LDR      r0,|L7.2136|
000498  8800              LDRH     r0,[r0,#0]  ; sum
00049a  b281              UXTH     r1,r0
00049c  2000              MOVS     r0,#0
00049e  f7fffffe          BL       comSendHalfword
;;;446      							comSendHalfword(COM1,chan[0]);
0004a2  48ef              LDR      r0,|L7.2144|
0004a4  8800              LDRH     r0,[r0,#0]  ; chan
0004a6  b281              UXTH     r1,r0
0004a8  2000              MOVS     r0,#0
0004aa  f7fffffe          BL       comSendHalfword
;;;447    								comSendHalfword(COM1,chan[1]);
0004ae  48ec              LDR      r0,|L7.2144|
0004b0  8840              LDRH     r0,[r0,#2]  ; chan
0004b2  b281              UXTH     r1,r0
0004b4  2000              MOVS     r0,#0
0004b6  f7fffffe          BL       comSendHalfword
;;;448    								comSendHalfword(COM1,chan[2]);
0004ba  48e9              LDR      r0,|L7.2144|
0004bc  8880              LDRH     r0,[r0,#4]  ; chan
0004be  b281              UXTH     r1,r0
0004c0  2000              MOVS     r0,#0
0004c2  f7fffffe          BL       comSendHalfword
;;;449    								comSendHalfword(COM1,chan[3]);
0004c6  48e6              LDR      r0,|L7.2144|
0004c8  88c0              LDRH     r0,[r0,#6]  ; chan
0004ca  b281              UXTH     r1,r0
0004cc  2000              MOVS     r0,#0
0004ce  f7fffffe          BL       comSendHalfword
;;;450    								comSendHalfword(COM1,chan[4]);
0004d2  48e3              LDR      r0,|L7.2144|
0004d4  8900              LDRH     r0,[r0,#8]  ; chan
0004d6  b281              UXTH     r1,r0
0004d8  2000              MOVS     r0,#0
0004da  f7fffffe          BL       comSendHalfword
;;;451    								comSendHalfword(COM1,chan[5]);
0004de  48e0              LDR      r0,|L7.2144|
0004e0  8940              LDRH     r0,[r0,#0xa]  ; chan
0004e2  b281              UXTH     r1,r0
0004e4  2000              MOVS     r0,#0
0004e6  f7fffffe          BL       comSendHalfword
;;;452    							 	comSendHalfword(COM1,sum_lb_bart);
0004ea  48de              LDR      r0,|L7.2148|
0004ec  8800              LDRH     r0,[r0,#0]  ; sum_lb_bart
0004ee  b281              UXTH     r1,r0
0004f0  2000              MOVS     r0,#0
0004f2  f7fffffe          BL       comSendHalfword
;;;453    							 
;;;454    								comSendChar(COM1, 0x5A);
0004f6  215a              MOVS     r1,#0x5a
0004f8  2000              MOVS     r0,#0
0004fa  f7fffffe          BL       comSendChar
;;;455    								comSendChar(COM1, 0xA5);
0004fe  21a5              MOVS     r1,#0xa5
000500  2000              MOVS     r0,#0
000502  f7fffffe          BL       comSendChar
;;;456    								comSendChar(COM1, 0x07);
000506  2107              MOVS     r1,#7
000508  2000              MOVS     r0,#0
00050a  f7fffffe          BL       comSendChar
;;;457    								comSendChar(COM1, 0x82);
00050e  2182              MOVS     r1,#0x82
000510  2000              MOVS     r0,#0
000512  f7fffffe          BL       comSendChar
;;;458    								comSendChar(COM1, 0x00);
000516  2100              MOVS     r1,#0
000518  4608              MOV      r0,r1
00051a  f7fffffe          BL       comSendChar
;;;459    								comSendChar(COM1, 0x00);
00051e  2100              MOVS     r1,#0
000520  4608              MOV      r0,r1
000522  f7fffffe          BL       comSendChar
;;;460    								comSendword(COM1,len);
000526  4651              MOV      r1,r10
000528  2000              MOVS     r0,#0
00052a  f7fffffe          BL       comSendword
;;;461    							 
;;;462    							  comSendword(COM6,len);
00052e  4651              MOV      r1,r10
000530  2005              MOVS     r0,#5
000532  f7fffffe          BL       comSendword
;;;463    							 	comSendHalfword(COM6,sum);
000536  48c8              LDR      r0,|L7.2136|
000538  8800              LDRH     r0,[r0,#0]  ; sum
00053a  b281              UXTH     r1,r0
00053c  2005              MOVS     r0,#5
00053e  f7fffffe          BL       comSendHalfword
;;;464    								comSendChar(COM6, 0xBB);
000542  21bb              MOVS     r1,#0xbb
000544  2005              MOVS     r0,#5
000546  f7fffffe          BL       comSendChar
;;;465    								comSendChar(COM6, 0xAA);
00054a  21aa              MOVS     r1,#0xaa
00054c  2005              MOVS     r0,#5
00054e  f7fffffe          BL       comSendChar
;;;466    							 
;;;467    							 biaozhi_bart=0;
000552  2000              MOVS     r0,#0
000554  49c1              LDR      r1,|L7.2140|
000556  6008              STR      r0,[r1,#0]  ; biaozhi_bart
                  |L7.1368|
;;;468            }				
;;;469    				
;;;470    				
;;;471    				
;;;472    
;;;473    			}					
;;;474    	}
;;;475    
;;;476    //写字符型
;;;477    if(biaozhi == 1)
000558  48c3              LDR      r0,|L7.2152|
00055a  7800              LDRB     r0,[r0,#0]  ; biaozhi
00055c  2801              CMP      r0,#1
00055e  d17d              BNE      |L7.1628|
;;;478    {
;;;479    	channel[0] = g_tAD7606.sNowAdc[0]*5000/32768;
000560  49c2              LDR      r1,|L7.2156|
000562  8849              LDRH     r1,[r1,#2]  ; g_tAD7606
000564  f2413288          MOV      r2,#0x1388
000568  fb11f002          SMULBB   r0,r1,r2
00056c  17c1              ASRS     r1,r0,#31
00056e  eb004151          ADD      r1,r0,r1,LSR #17
000572  13c9              ASRS     r1,r1,#15
000574  f8ad14d4          STRH     r1,[sp,#0x4d4]
;;;480    	channel[1] = g_tAD7606.sNowAdc[1]*5000/32768;
000578  49bc              LDR      r1,|L7.2156|
00057a  8889              LDRH     r1,[r1,#4]
00057c  fb11f002          SMULBB   r0,r1,r2
000580  17c1              ASRS     r1,r0,#31
000582  eb004151          ADD      r1,r0,r1,LSR #17
000586  13c9              ASRS     r1,r1,#15
000588  f8ad14d6          STRH     r1,[sp,#0x4d6]
;;;481    	channel[2] = g_tAD7606.sNowAdc[2]*5000/32768;
00058c  49b7              LDR      r1,|L7.2156|
00058e  88c9              LDRH     r1,[r1,#6]
000590  fb11f002          SMULBB   r0,r1,r2
000594  17c1              ASRS     r1,r0,#31
000596  eb004151          ADD      r1,r0,r1,LSR #17
00059a  13c9              ASRS     r1,r1,#15
00059c  f8ad14d8          STRH     r1,[sp,#0x4d8]
;;;482    	channel[3] = g_tAD7606.sNowAdc[3]*5000/32768;
0005a0  49b2              LDR      r1,|L7.2156|
0005a2  8909              LDRH     r1,[r1,#8]
0005a4  fb11f002          SMULBB   r0,r1,r2
0005a8  17c1              ASRS     r1,r0,#31
0005aa  eb004151          ADD      r1,r0,r1,LSR #17
0005ae  13c9              ASRS     r1,r1,#15
0005b0  f8ad14da          STRH     r1,[sp,#0x4da]
;;;483    	channel[4] = g_tAD7606.sNowAdc[4]*5000/32768;
0005b4  49ad              LDR      r1,|L7.2156|
0005b6  8949              LDRH     r1,[r1,#0xa]
0005b8  fb11f002          SMULBB   r0,r1,r2
0005bc  17c1              ASRS     r1,r0,#31
0005be  eb004151          ADD      r1,r0,r1,LSR #17
0005c2  13c9              ASRS     r1,r1,#15
0005c4  f8ad14dc          STRH     r1,[sp,#0x4dc]
;;;484    	channel[5] = g_tAD7606.sNowAdc[5]*5000/32768;
0005c8  49a8              LDR      r1,|L7.2156|
0005ca  8989              LDRH     r1,[r1,#0xc]
0005cc  fb11f002          SMULBB   r0,r1,r2
0005d0  17c1              ASRS     r1,r0,#31
0005d2  eb004151          ADD      r1,r0,r1,LSR #17
0005d6  13c9              ASRS     r1,r1,#15
0005d8  f8ad14de          STRH     r1,[sp,#0x4de]
;;;485    	sumchannel = channel[0]+channel[1]+channel[2]+channel[3]+channel[4]+channel[5];
0005dc  f8bd04d4          LDRH     r0,[sp,#0x4d4]
0005e0  f8bd14d6          LDRH     r1,[sp,#0x4d6]
0005e4  4408              ADD      r0,r0,r1
0005e6  f8bd14d8          LDRH     r1,[sp,#0x4d8]
0005ea  4408              ADD      r0,r0,r1
0005ec  f8bd14da          LDRH     r1,[sp,#0x4da]
0005f0  4408              ADD      r0,r0,r1
0005f2  f8bd14dc          LDRH     r1,[sp,#0x4dc]
0005f6  4408              ADD      r0,r0,r1
0005f8  f8bd14de          LDRH     r1,[sp,#0x4de]
0005fc  4408              ADD      r0,r0,r1
0005fe  b200              SXTH     r0,r0
000600  f8cd04d0          STR      r0,[sp,#0x4d0]
;;;486    	num=(circle_count-1)*2400+TIM_GetCounter(TIM4);
000604  489a              LDR      r0,|L7.2160|
000606  f7fffffe          BL       TIM_GetCounter
00060a  499a              LDR      r1,|L7.2164|
00060c  6809              LDR      r1,[r1,#0]  ; circle_count
00060e  1e49              SUBS     r1,r1,#1
000610  ebc11101          RSB      r1,r1,r1,LSL #4
000614  eb010181          ADD      r1,r1,r1,LSL #2
000618  eb001141          ADD      r1,r0,r1,LSL #5
00061c  f8cd14cc          STR      r1,[sp,#0x4cc]
;;;487    	len = num*80*3.14/4/600;
000620  f8dd14cc          LDR      r1,[sp,#0x4cc]
000624  eb010181          ADD      r1,r1,r1,LSL #2
000628  0108              LSLS     r0,r1,#4
00062a  f7fffffe          BL       __aeabi_i2d
00062e  ed9f0b92          VLDR     d0,|L7.2168|
000632  ec532b10          VMOV     r2,r3,d0
000636  f7fffffe          BL       __aeabi_dmul
00063a  ed9f0b91          VLDR     d0,|L7.2176|
00063e  ec532b10          VMOV     r2,r3,d0
000642  f7fffffe          BL       __aeabi_ddiv
000646  ed9f0b90          VLDR     d0,|L7.2184|
00064a  ec532b10          VMOV     r2,r3,d0
00064e  f7fffffe          BL       __aeabi_ddiv
000652  f7fffffe          BL       __aeabi_d2iz
000656  4682              MOV      r10,r0
;;;488    
;;;489    	sprintf(BUF8, " %d" , len);
000658  4652              MOV      r2,r10
00065a  e000              B        |L7.1630|
                  |L7.1628|
00065c  e3fe              B        |L7.3676|
                  |L7.1630|
00065e  a18c              ADR      r1,|L7.2192|
000660  f50d6091          ADD      r0,sp,#0x488
000664  f7fffffe          BL       __2sprintf
;;;490    	sprintf(BUF0, " %d" , channel[0]);
000668  f9bd24d4          LDRSH    r2,[sp,#0x4d4]
00066c  a188              ADR      r1,|L7.2192|
00066e  f20d40c4          ADD      r0,sp,#0x4c4
000672  f7fffffe          BL       __2sprintf
;;;491    	sprintf(BUF1, " %d" , channel[1]);
000676  f9bd24d6          LDRSH    r2,[sp,#0x4d6]
00067a  a185              ADR      r1,|L7.2192|
00067c  f20d40bc          ADD      r0,sp,#0x4bc
000680  f7fffffe          BL       __2sprintf
;;;492    	sprintf(BUF2, " %d" , channel[2]);
000684  f9bd24d8          LDRSH    r2,[sp,#0x4d8]
000688  a181              ADR      r1,|L7.2192|
00068a  f20d40b4          ADD      r0,sp,#0x4b4
00068e  f7fffffe          BL       __2sprintf
;;;493    	sprintf(BUF3, " %d" , channel[3]);
000692  f9bd24da          LDRSH    r2,[sp,#0x4da]
000696  a17e              ADR      r1,|L7.2192|
000698  f20d40ac          ADD      r0,sp,#0x4ac
00069c  f7fffffe          BL       __2sprintf
;;;494    	sprintf(BUF4, " %d" , channel[4]);
0006a0  f9bd24dc          LDRSH    r2,[sp,#0x4dc]
0006a4  a17a              ADR      r1,|L7.2192|
0006a6  f20d40a4          ADD      r0,sp,#0x4a4
0006aa  f7fffffe          BL       __2sprintf
;;;495    	sprintf(BUF5, " %d" , channel[5]);
0006ae  f9bd24de          LDRSH    r2,[sp,#0x4de]
0006b2  a177              ADR      r1,|L7.2192|
0006b4  f20d409c          ADD      r0,sp,#0x49c
0006b8  f7fffffe          BL       __2sprintf
;;;496    	sprintf(BUF6, " %d" , sumchannel);
0006bc  a174              ADR      r1,|L7.2192|
0006be  f20d4094          ADD      r0,sp,#0x494
0006c2  f8dd24d0          LDR      r2,[sp,#0x4d0]
0006c6  f7fffffe          BL       __2sprintf
;;;497    	
;;;498    	if(Mark==end)
0006ca  454c              CMP      r4,r9
0006cc  d100              BNE      |L7.1744|
;;;499    	{
;;;500    		Mark=0;
0006ce  2400              MOVS     r4,#0
                  |L7.1744|
;;;501    		
;;;502    	}
;;;503    	//一次54-6=48个字符
;;;504    	if(Mark<middle)
0006d0  4544              CMP      r4,r8
0006d2  da7d              BGE      |L7.2000|
;;;505    	{
;;;506    		g_tAdcFifo.sBuf1[g_tAdcFifo.usWrite1] = BUF8[0];
0006d4  f89d1488          LDRB     r1,[sp,#0x488]
0006d8  486e              LDR      r0,|L7.2196|
0006da  8842              LDRH     r2,[r0,#2]  ; g_tAdcFifo
0006dc  3009              ADDS     r0,r0,#9
0006de  5481              STRB     r1,[r0,r2]
;;;507    		g_tAdcFifo.usWrite1++;
0006e0  3809              SUBS     r0,r0,#9
0006e2  8840              LDRH     r0,[r0,#2]  ; g_tAdcFifo
0006e4  1c40              ADDS     r0,r0,#1
0006e6  496b              LDR      r1,|L7.2196|
0006e8  8048              STRH     r0,[r1,#2]
;;;508    		g_tAdcFifo.sBuf1[g_tAdcFifo.usWrite1] = BUF8[1];
0006ea  f89d1489          LDRB     r1,[sp,#0x489]
0006ee  4869              LDR      r0,|L7.2196|
0006f0  8842              LDRH     r2,[r0,#2]  ; g_tAdcFifo
0006f2  3009              ADDS     r0,r0,#9
0006f4  5481              STRB     r1,[r0,r2]
;;;509    		g_tAdcFifo.usWrite1++;
0006f6  3809              SUBS     r0,r0,#9
0006f8  8840              LDRH     r0,[r0,#2]  ; g_tAdcFifo
0006fa  1c40              ADDS     r0,r0,#1
0006fc  4965              LDR      r1,|L7.2196|
0006fe  8048              STRH     r0,[r1,#2]
;;;510    		g_tAdcFifo.sBuf1[g_tAdcFifo.usWrite1] = BUF8[2];
000700  f89d148a          LDRB     r1,[sp,#0x48a]
000704  4863              LDR      r0,|L7.2196|
000706  8842              LDRH     r2,[r0,#2]  ; g_tAdcFifo
000708  3009              ADDS     r0,r0,#9
00070a  5481              STRB     r1,[r0,r2]
;;;511    		g_tAdcFifo.usWrite1++;
00070c  3809              SUBS     r0,r0,#9
00070e  8840              LDRH     r0,[r0,#2]  ; g_tAdcFifo
000710  1c40              ADDS     r0,r0,#1
000712  4960              LDR      r1,|L7.2196|
000714  8048              STRH     r0,[r1,#2]
;;;512    		g_tAdcFifo.sBuf1[g_tAdcFifo.usWrite1] = BUF8[3];
000716  f89d148b          LDRB     r1,[sp,#0x48b]
00071a  485e              LDR      r0,|L7.2196|
00071c  8842              LDRH     r2,[r0,#2]  ; g_tAdcFifo
00071e  3009              ADDS     r0,r0,#9
000720  5481              STRB     r1,[r0,r2]
;;;513    		g_tAdcFifo.usWrite1++;
000722  3809              SUBS     r0,r0,#9
000724  8840              LDRH     r0,[r0,#2]  ; g_tAdcFifo
000726  1c40              ADDS     r0,r0,#1
000728  495a              LDR      r1,|L7.2196|
00072a  8048              STRH     r0,[r1,#2]
;;;514    		g_tAdcFifo.sBuf1[g_tAdcFifo.usWrite1] = BUF8[4];
00072c  f89d148c          LDRB     r1,[sp,#0x48c]
000730  4858              LDR      r0,|L7.2196|
000732  8842              LDRH     r2,[r0,#2]  ; g_tAdcFifo
000734  3009              ADDS     r0,r0,#9
000736  5481              STRB     r1,[r0,r2]
;;;515    		g_tAdcFifo.usWrite1++;
000738  3809              SUBS     r0,r0,#9
00073a  8840              LDRH     r0,[r0,#2]  ; g_tAdcFifo
00073c  1c40              ADDS     r0,r0,#1
00073e  4955              LDR      r1,|L7.2196|
000740  8048              STRH     r0,[r1,#2]
;;;516    		g_tAdcFifo.sBuf1[g_tAdcFifo.usWrite1] = BUF8[5];
000742  f89d148d          LDRB     r1,[sp,#0x48d]
000746  4853              LDR      r0,|L7.2196|
000748  8842              LDRH     r2,[r0,#2]  ; g_tAdcFifo
00074a  3009              ADDS     r0,r0,#9
00074c  5481              STRB     r1,[r0,r2]
;;;517    		g_tAdcFifo.usWrite1++;
00074e  3809              SUBS     r0,r0,#9
000750  8840              LDRH     r0,[r0,#2]  ; g_tAdcFifo
000752  1c40              ADDS     r0,r0,#1
000754  494f              LDR      r1,|L7.2196|
000756  8048              STRH     r0,[r1,#2]
;;;518    		g_tAdcFifo.sBuf1[g_tAdcFifo.usWrite1] = BUF8[6];
000758  f89d148e          LDRB     r1,[sp,#0x48e]
00075c  484d              LDR      r0,|L7.2196|
00075e  8842              LDRH     r2,[r0,#2]  ; g_tAdcFifo
000760  3009              ADDS     r0,r0,#9
000762  5481              STRB     r1,[r0,r2]
;;;519    		g_tAdcFifo.usWrite1++;
000764  3809              SUBS     r0,r0,#9
000766  8840              LDRH     r0,[r0,#2]  ; g_tAdcFifo
000768  1c40              ADDS     r0,r0,#1
00076a  494a              LDR      r1,|L7.2196|
00076c  8048              STRH     r0,[r1,#2]
;;;520    		g_tAdcFifo.sBuf1[g_tAdcFifo.usWrite1] = BUF8[7];
00076e  f89d148f          LDRB     r1,[sp,#0x48f]
000772  4848              LDR      r0,|L7.2196|
000774  8842              LDRH     r2,[r0,#2]  ; g_tAdcFifo
000776  3009              ADDS     r0,r0,#9
000778  5481              STRB     r1,[r0,r2]
;;;521    		g_tAdcFifo.usWrite1++;
00077a  3809              SUBS     r0,r0,#9
00077c  8840              LDRH     r0,[r0,#2]  ; g_tAdcFifo
00077e  1c40              ADDS     r0,r0,#1
000780  4944              LDR      r1,|L7.2196|
000782  8048              STRH     r0,[r1,#2]
;;;522    		g_tAdcFifo.sBuf1[g_tAdcFifo.usWrite1] = BUF8[8];
000784  f89d1490          LDRB     r1,[sp,#0x490]
000788  4842              LDR      r0,|L7.2196|
00078a  8842              LDRH     r2,[r0,#2]  ; g_tAdcFifo
00078c  3009              ADDS     r0,r0,#9
00078e  5481              STRB     r1,[r0,r2]
;;;523    		g_tAdcFifo.usWrite1++;
000790  3809              SUBS     r0,r0,#9
000792  8840              LDRH     r0,[r0,#2]  ; g_tAdcFifo
000794  1c40              ADDS     r0,r0,#1
000796  493f              LDR      r1,|L7.2196|
000798  8048              STRH     r0,[r1,#2]
;;;524    		g_tAdcFifo.sBuf1[g_tAdcFifo.usWrite1] = BUF8[9];
00079a  f89d1491          LDRB     r1,[sp,#0x491]
00079e  483d              LDR      r0,|L7.2196|
0007a0  8842              LDRH     r2,[r0,#2]  ; g_tAdcFifo
0007a2  3009              ADDS     r0,r0,#9
0007a4  5481              STRB     r1,[r0,r2]
;;;525    		g_tAdcFifo.usWrite1++;
0007a6  3809              SUBS     r0,r0,#9
0007a8  8840              LDRH     r0,[r0,#2]  ; g_tAdcFifo
0007aa  1c40              ADDS     r0,r0,#1
0007ac  4939              LDR      r1,|L7.2196|
0007ae  8048              STRH     r0,[r1,#2]
;;;526    		g_tAdcFifo.sBuf1[g_tAdcFifo.usWrite1] = ',';
0007b0  212c              MOVS     r1,#0x2c
0007b2  4838              LDR      r0,|L7.2196|
0007b4  8842              LDRH     r2,[r0,#2]  ; g_tAdcFifo
0007b6  3009              ADDS     r0,r0,#9
0007b8  5481              STRB     r1,[r0,r2]
;;;527    		g_tAdcFifo.usWrite1++;
0007ba  3809              SUBS     r0,r0,#9
0007bc  8840              LDRH     r0,[r0,#2]  ; g_tAdcFifo
0007be  1c40              ADDS     r0,r0,#1
0007c0  4934              LDR      r1,|L7.2196|
0007c2  8048              STRH     r0,[r1,#2]
;;;528    //		g_tAdcFifo.sBuf1[g_tAdcFifo.usWrite1] = BUF0[0];
;;;529    //		g_tAdcFifo.usWrite1++;
;;;530    		g_tAdcFifo.sBuf1[g_tAdcFifo.usWrite1] = BUF0[1];
0007c4  f89d14c5          LDRB     r1,[sp,#0x4c5]
0007c8  4832              LDR      r0,|L7.2196|
0007ca  8842              LDRH     r2,[r0,#2]  ; g_tAdcFifo
0007cc  3009              ADDS     r0,r0,#9
0007ce  e000              B        |L7.2002|
                  |L7.2000|
0007d0  e1a0              B        |L7.2836|
                  |L7.2002|
0007d2  5481              STRB     r1,[r0,r2]
;;;531    		g_tAdcFifo.usWrite1++;
0007d4  3809              SUBS     r0,r0,#9
0007d6  8840              LDRH     r0,[r0,#2]  ; g_tAdcFifo
0007d8  1c40              ADDS     r0,r0,#1
0007da  492e              LDR      r1,|L7.2196|
0007dc  8048              STRH     r0,[r1,#2]
;;;532    		g_tAdcFifo.sBuf1[g_tAdcFifo.usWrite1] = BUF0[2];
0007de  f89d14c6          LDRB     r1,[sp,#0x4c6]
0007e2  482c              LDR      r0,|L7.2196|
0007e4  8842              LDRH     r2,[r0,#2]  ; g_tAdcFifo
0007e6  3009              ADDS     r0,r0,#9
0007e8  5481              STRB     r1,[r0,r2]
;;;533    		g_tAdcFifo.usWrite1++;
0007ea  3809              SUBS     r0,r0,#9
0007ec  8840              LDRH     r0,[r0,#2]  ; g_tAdcFifo
0007ee  1c40              ADDS     r0,r0,#1
0007f0  4928              LDR      r1,|L7.2196|
0007f2  8048              STRH     r0,[r1,#2]
;;;534    		g_tAdcFifo.sBuf1[g_tAdcFifo.usWrite1] = BUF0[3];
0007f4  f89d14c7          LDRB     r1,[sp,#0x4c7]
0007f8  4826              LDR      r0,|L7.2196|
0007fa  8842              LDRH     r2,[r0,#2]  ; g_tAdcFifo
0007fc  3009              ADDS     r0,r0,#9
0007fe  5481              STRB     r1,[r0,r2]
;;;535    		g_tAdcFifo.usWrite1++;
000800  3809              SUBS     r0,r0,#9
000802  8840              LDRH     r0,[r0,#2]  ; g_tAdcFifo
000804  1c40              ADDS     r0,r0,#1
000806  4923              LDR      r1,|L7.2196|
000808  8048              STRH     r0,[r1,#2]
;;;536    		g_tAdcFifo.sBuf1[g_tAdcFifo.usWrite1] = BUF0[4];
00080a  f89d14c8          LDRB     r1,[sp,#0x4c8]
00080e  4821              LDR      r0,|L7.2196|
000810  8842              LDRH     r2,[r0,#2]  ; g_tAdcFifo
000812  3009              ADDS     r0,r0,#9
000814  5481              STRB     r1,[r0,r2]
;;;537    		g_tAdcFifo.usWrite1++;
000816  3809              SUBS     r0,r0,#9
000818  8840              LDRH     r0,[r0,#2]  ; g_tAdcFifo
00081a  1c40              ADDS     r0,r0,#1
00081c  491d              LDR      r1,|L7.2196|
00081e  8048              STRH     r0,[r1,#2]
;;;538    		g_tAdcFifo.sBuf1[g_tAdcFifo.usWrite1] = ',';
000820  212c              MOVS     r1,#0x2c
000822  481c              LDR      r0,|L7.2196|
000824  8842              LDRH     r2,[r0,#2]  ; g_tAdcFifo
000826  3009              ADDS     r0,r0,#9
000828  5481              STRB     r1,[r0,r2]
;;;539    		g_tAdcFifo.usWrite1++;
00082a  3809              SUBS     r0,r0,#9
00082c  8840              LDRH     r0,[r0,#2]  ; g_tAdcFifo
00082e  1c40              ADDS     r0,r0,#1
000830  4918              LDR      r1,|L7.2196|
000832  8048              STRH     r0,[r1,#2]
;;;540    //		g_tAdcFifo.sBuf1[g_tAdcFifo.usWrite1] = BUF1[0];
;;;541    //		g_tAdcFifo.usWrite1++;
;;;542    		g_tAdcFifo.sBuf1[g_tAdcFifo.usWrite1] = BUF1[1];
000834  f89d14bd          LDRB     r1,[sp,#0x4bd]
000838  4816              LDR      r0,|L7.2196|
00083a  8842              LDRH     r2,[r0,#2]  ; g_tAdcFifo
00083c  3009              ADDS     r0,r0,#9
00083e  5481              STRB     r1,[r0,r2]
;;;543    		g_tAdcFifo.usWrite1++;
000840  3809              SUBS     r0,r0,#9
000842  8840              LDRH     r0,[r0,#2]  ; g_tAdcFifo
000844  1c40              ADDS     r0,r0,#1
000846  4913              LDR      r1,|L7.2196|
000848  8048              STRH     r0,[r1,#2]
;;;544    		g_tAdcFifo.sBuf1[g_tAdcFifo.usWrite1] = BUF1[2];
00084a  f89d14be          LDRB     r1,[sp,#0x4be]
00084e  4811              LDR      r0,|L7.2196|
000850  8842              LDRH     r2,[r0,#2]  ; g_tAdcFifo
000852  3009              ADDS     r0,r0,#9
000854  5481              STRB     r1,[r0,r2]
;;;545    		g_tAdcFifo.usWrite1++;
000856  e01f              B        |L7.2200|
                  |L7.2136|
                          DCD      ||sum||
                  |L7.2140|
                          DCD      biaozhi_bart
                  |L7.2144|
                          DCD      chan
                  |L7.2148|
                          DCD      sum_lb_bart
                  |L7.2152|
                          DCD      biaozhi
                  |L7.2156|
                          DCD      g_tAD7606
                  |L7.2160|
                          DCD      0x40000800
                  |L7.2164|
                          DCD      circle_count
                  |L7.2168|
000878  51eb851f          DCFD     0x40091eb851eb851f ; 3.1400000000000001
00087c  40091eb8
                  |L7.2176|
000880  00000000          DCFD     0x4010000000000000 ; 4
000884  40100000
                  |L7.2184|
000888  00000000          DCFD     0x4082c00000000000 ; 600
00088c  4082c000
                  |L7.2192|
000890  20256400          DCB      " %d",0
                  |L7.2196|
                          DCD      g_tAdcFifo
                  |L7.2200|
000898  3809              SUBS     r0,r0,#9
00089a  8840              LDRH     r0,[r0,#2]  ; g_tAdcFifo
00089c  1c40              ADDS     r0,r0,#1
00089e  49fe              LDR      r1,|L7.3224|
0008a0  8048              STRH     r0,[r1,#2]
;;;546    		g_tAdcFifo.sBuf1[g_tAdcFifo.usWrite1] = BUF1[3];
0008a2  f89d14bf          LDRB     r1,[sp,#0x4bf]
0008a6  48fc              LDR      r0,|L7.3224|
0008a8  8842              LDRH     r2,[r0,#2]  ; g_tAdcFifo
0008aa  3009              ADDS     r0,r0,#9
0008ac  5481              STRB     r1,[r0,r2]
;;;547    		g_tAdcFifo.usWrite1++;
0008ae  3809              SUBS     r0,r0,#9
0008b0  8840              LDRH     r0,[r0,#2]  ; g_tAdcFifo
0008b2  1c40              ADDS     r0,r0,#1
0008b4  49f8              LDR      r1,|L7.3224|
0008b6  8048              STRH     r0,[r1,#2]
;;;548    		g_tAdcFifo.sBuf1[g_tAdcFifo.usWrite1] = BUF1[4];
0008b8  f89d14c0          LDRB     r1,[sp,#0x4c0]
0008bc  48f6              LDR      r0,|L7.3224|
0008be  8842              LDRH     r2,[r0,#2]  ; g_tAdcFifo
0008c0  3009              ADDS     r0,r0,#9
0008c2  5481              STRB     r1,[r0,r2]
;;;549    		g_tAdcFifo.usWrite1++;
0008c4  3809              SUBS     r0,r0,#9
0008c6  8840              LDRH     r0,[r0,#2]  ; g_tAdcFifo
0008c8  1c40              ADDS     r0,r0,#1
0008ca  49f3              LDR      r1,|L7.3224|
0008cc  8048              STRH     r0,[r1,#2]
;;;550    		g_tAdcFifo.sBuf1[g_tAdcFifo.usWrite1] = ',';
0008ce  212c              MOVS     r1,#0x2c
0008d0  48f1              LDR      r0,|L7.3224|
0008d2  8842              LDRH     r2,[r0,#2]  ; g_tAdcFifo
0008d4  3009              ADDS     r0,r0,#9
0008d6  5481              STRB     r1,[r0,r2]
;;;551    		g_tAdcFifo.usWrite1++;
0008d8  3809              SUBS     r0,r0,#9
0008da  8840              LDRH     r0,[r0,#2]  ; g_tAdcFifo
0008dc  1c40              ADDS     r0,r0,#1
0008de  49ee              LDR      r1,|L7.3224|
0008e0  8048              STRH     r0,[r1,#2]
;;;552    //		g_tAdcFifo.sBuf1[g_tAdcFifo.usWrite1] = BUF2[0];
;;;553    //		g_tAdcFifo.usWrite1++;
;;;554    		g_tAdcFifo.sBuf1[g_tAdcFifo.usWrite1] = BUF2[1];
0008e2  f89d14b5          LDRB     r1,[sp,#0x4b5]
0008e6  48ec              LDR      r0,|L7.3224|
0008e8  8842              LDRH     r2,[r0,#2]  ; g_tAdcFifo
0008ea  3009              ADDS     r0,r0,#9
0008ec  5481              STRB     r1,[r0,r2]
;;;555    		g_tAdcFifo.usWrite1++;
0008ee  3809              SUBS     r0,r0,#9
0008f0  8840              LDRH     r0,[r0,#2]  ; g_tAdcFifo
0008f2  1c40              ADDS     r0,r0,#1
0008f4  49e8              LDR      r1,|L7.3224|
0008f6  8048              STRH     r0,[r1,#2]
;;;556    		g_tAdcFifo.sBuf1[g_tAdcFifo.usWrite1] = BUF2[2];
0008f8  f89d14b6          LDRB     r1,[sp,#0x4b6]
0008fc  48e6              LDR      r0,|L7.3224|
0008fe  8842              LDRH     r2,[r0,#2]  ; g_tAdcFifo
000900  3009              ADDS     r0,r0,#9
000902  5481              STRB     r1,[r0,r2]
;;;557    		g_tAdcFifo.usWrite1++;
000904  3809              SUBS     r0,r0,#9
000906  8840              LDRH     r0,[r0,#2]  ; g_tAdcFifo
000908  1c40              ADDS     r0,r0,#1
00090a  49e3              LDR      r1,|L7.3224|
00090c  8048              STRH     r0,[r1,#2]
;;;558    		g_tAdcFifo.sBuf1[g_tAdcFifo.usWrite1] = BUF2[3];
00090e  f89d14b7          LDRB     r1,[sp,#0x4b7]
000912  48e1              LDR      r0,|L7.3224|
000914  8842              LDRH     r2,[r0,#2]  ; g_tAdcFifo
000916  3009              ADDS     r0,r0,#9
000918  5481              STRB     r1,[r0,r2]
;;;559    		g_tAdcFifo.usWrite1++;
00091a  3809              SUBS     r0,r0,#9
00091c  8840              LDRH     r0,[r0,#2]  ; g_tAdcFifo
00091e  1c40              ADDS     r0,r0,#1
000920  49dd              LDR      r1,|L7.3224|
000922  8048              STRH     r0,[r1,#2]
;;;560    		g_tAdcFifo.sBuf1[g_tAdcFifo.usWrite1] = BUF2[4];
000924  f89d14b8          LDRB     r1,[sp,#0x4b8]
000928  48db              LDR      r0,|L7.3224|
00092a  8842              LDRH     r2,[r0,#2]  ; g_tAdcFifo
00092c  3009              ADDS     r0,r0,#9
00092e  5481              STRB     r1,[r0,r2]
;;;561    		g_tAdcFifo.usWrite1++;
000930  3809              SUBS     r0,r0,#9
000932  8840              LDRH     r0,[r0,#2]  ; g_tAdcFifo
000934  1c40              ADDS     r0,r0,#1
000936  49d8              LDR      r1,|L7.3224|
000938  8048              STRH     r0,[r1,#2]
;;;562    		g_tAdcFifo.sBuf1[g_tAdcFifo.usWrite1] = ',';
00093a  212c              MOVS     r1,#0x2c
00093c  48d6              LDR      r0,|L7.3224|
00093e  8842              LDRH     r2,[r0,#2]  ; g_tAdcFifo
000940  3009              ADDS     r0,r0,#9
000942  5481              STRB     r1,[r0,r2]
;;;563    		g_tAdcFifo.usWrite1++;	
000944  3809              SUBS     r0,r0,#9
000946  8840              LDRH     r0,[r0,#2]  ; g_tAdcFifo
000948  1c40              ADDS     r0,r0,#1
00094a  49d3              LDR      r1,|L7.3224|
00094c  8048              STRH     r0,[r1,#2]
;;;564    //		g_tAdcFifo.sBuf1[g_tAdcFifo.usWrite1] = BUF3[0];
;;;565    //		g_tAdcFifo.usWrite1++;
;;;566    		g_tAdcFifo.sBuf1[g_tAdcFifo.usWrite1] = BUF3[1];
00094e  f89d14ad          LDRB     r1,[sp,#0x4ad]
000952  48d1              LDR      r0,|L7.3224|
000954  8842              LDRH     r2,[r0,#2]  ; g_tAdcFifo
000956  3009              ADDS     r0,r0,#9
000958  5481              STRB     r1,[r0,r2]
;;;567    		g_tAdcFifo.usWrite1++;
00095a  3809              SUBS     r0,r0,#9
00095c  8840              LDRH     r0,[r0,#2]  ; g_tAdcFifo
00095e  1c40              ADDS     r0,r0,#1
000960  49cd              LDR      r1,|L7.3224|
000962  8048              STRH     r0,[r1,#2]
;;;568    		g_tAdcFifo.sBuf1[g_tAdcFifo.usWrite1] = BUF3[2];
000964  f89d14ae          LDRB     r1,[sp,#0x4ae]
000968  48cb              LDR      r0,|L7.3224|
00096a  8842              LDRH     r2,[r0,#2]  ; g_tAdcFifo
00096c  3009              ADDS     r0,r0,#9
00096e  5481              STRB     r1,[r0,r2]
;;;569    		g_tAdcFifo.usWrite1++;
000970  3809              SUBS     r0,r0,#9
000972  8840              LDRH     r0,[r0,#2]  ; g_tAdcFifo
000974  1c40              ADDS     r0,r0,#1
000976  49c8              LDR      r1,|L7.3224|
000978  8048              STRH     r0,[r1,#2]
;;;570    		g_tAdcFifo.sBuf1[g_tAdcFifo.usWrite1] = BUF3[3];
00097a  f89d14af          LDRB     r1,[sp,#0x4af]
00097e  48c6              LDR      r0,|L7.3224|
000980  8842              LDRH     r2,[r0,#2]  ; g_tAdcFifo
000982  3009              ADDS     r0,r0,#9
000984  5481              STRB     r1,[r0,r2]
;;;571    		g_tAdcFifo.usWrite1++;
000986  3809              SUBS     r0,r0,#9
000988  8840              LDRH     r0,[r0,#2]  ; g_tAdcFifo
00098a  1c40              ADDS     r0,r0,#1
00098c  49c2              LDR      r1,|L7.3224|
00098e  8048              STRH     r0,[r1,#2]
;;;572    		g_tAdcFifo.sBuf1[g_tAdcFifo.usWrite1] = BUF3[4];
000990  f89d14b0          LDRB     r1,[sp,#0x4b0]
000994  48c0              LDR      r0,|L7.3224|
000996  8842              LDRH     r2,[r0,#2]  ; g_tAdcFifo
000998  3009              ADDS     r0,r0,#9
00099a  5481              STRB     r1,[r0,r2]
;;;573    		g_tAdcFifo.usWrite1++;
00099c  3809              SUBS     r0,r0,#9
00099e  8840              LDRH     r0,[r0,#2]  ; g_tAdcFifo
0009a0  1c40              ADDS     r0,r0,#1
0009a2  49bd              LDR      r1,|L7.3224|
0009a4  8048              STRH     r0,[r1,#2]
;;;574    		g_tAdcFifo.sBuf1[g_tAdcFifo.usWrite1] = ',';
0009a6  212c              MOVS     r1,#0x2c
0009a8  48bb              LDR      r0,|L7.3224|
0009aa  8842              LDRH     r2,[r0,#2]  ; g_tAdcFifo
0009ac  3009              ADDS     r0,r0,#9
0009ae  5481              STRB     r1,[r0,r2]
;;;575    		g_tAdcFifo.usWrite1++;
0009b0  3809              SUBS     r0,r0,#9
0009b2  8840              LDRH     r0,[r0,#2]  ; g_tAdcFifo
0009b4  1c40              ADDS     r0,r0,#1
0009b6  49b8              LDR      r1,|L7.3224|
0009b8  8048              STRH     r0,[r1,#2]
;;;576    //		g_tAdcFifo.sBuf1[g_tAdcFifo.usWrite1] = BUF4[0];
;;;577    //		g_tAdcFifo.usWrite1++;
;;;578    		g_tAdcFifo.sBuf1[g_tAdcFifo.usWrite1] = BUF4[1];
0009ba  f89d14a5          LDRB     r1,[sp,#0x4a5]
0009be  48b6              LDR      r0,|L7.3224|
0009c0  8842              LDRH     r2,[r0,#2]  ; g_tAdcFifo
0009c2  3009              ADDS     r0,r0,#9
0009c4  5481              STRB     r1,[r0,r2]
;;;579    		g_tAdcFifo.usWrite1++;
0009c6  3809              SUBS     r0,r0,#9
0009c8  8840              LDRH     r0,[r0,#2]  ; g_tAdcFifo
0009ca  1c40              ADDS     r0,r0,#1
0009cc  49b2              LDR      r1,|L7.3224|
0009ce  8048              STRH     r0,[r1,#2]
;;;580    		g_tAdcFifo.sBuf1[g_tAdcFifo.usWrite1] = BUF4[2];
0009d0  f89d14a6          LDRB     r1,[sp,#0x4a6]
0009d4  48b0              LDR      r0,|L7.3224|
0009d6  8842              LDRH     r2,[r0,#2]  ; g_tAdcFifo
0009d8  3009              ADDS     r0,r0,#9
0009da  5481              STRB     r1,[r0,r2]
;;;581    		g_tAdcFifo.usWrite1++;
0009dc  3809              SUBS     r0,r0,#9
0009de  8840              LDRH     r0,[r0,#2]  ; g_tAdcFifo
0009e0  1c40              ADDS     r0,r0,#1
0009e2  49ad              LDR      r1,|L7.3224|
0009e4  8048              STRH     r0,[r1,#2]
;;;582    		g_tAdcFifo.sBuf1[g_tAdcFifo.usWrite1] = BUF4[3];
0009e6  f89d14a7          LDRB     r1,[sp,#0x4a7]
0009ea  48ab              LDR      r0,|L7.3224|
0009ec  8842              LDRH     r2,[r0,#2]  ; g_tAdcFifo
0009ee  3009              ADDS     r0,r0,#9
0009f0  5481              STRB     r1,[r0,r2]
;;;583    		g_tAdcFifo.usWrite1++;
0009f2  3809              SUBS     r0,r0,#9
0009f4  8840              LDRH     r0,[r0,#2]  ; g_tAdcFifo
0009f6  1c40              ADDS     r0,r0,#1
0009f8  49a7              LDR      r1,|L7.3224|
0009fa  8048              STRH     r0,[r1,#2]
;;;584    		g_tAdcFifo.sBuf1[g_tAdcFifo.usWrite1] = BUF4[4];
0009fc  f89d14a8          LDRB     r1,[sp,#0x4a8]
000a00  48a5              LDR      r0,|L7.3224|
000a02  8842              LDRH     r2,[r0,#2]  ; g_tAdcFifo
000a04  3009              ADDS     r0,r0,#9
000a06  5481              STRB     r1,[r0,r2]
;;;585    		g_tAdcFifo.usWrite1++;
000a08  3809              SUBS     r0,r0,#9
000a0a  8840              LDRH     r0,[r0,#2]  ; g_tAdcFifo
000a0c  1c40              ADDS     r0,r0,#1
000a0e  49a2              LDR      r1,|L7.3224|
000a10  8048              STRH     r0,[r1,#2]
;;;586    		g_tAdcFifo.sBuf1[g_tAdcFifo.usWrite1] = ',';
000a12  212c              MOVS     r1,#0x2c
000a14  48a0              LDR      r0,|L7.3224|
000a16  8842              LDRH     r2,[r0,#2]  ; g_tAdcFifo
000a18  3009              ADDS     r0,r0,#9
000a1a  5481              STRB     r1,[r0,r2]
;;;587    		g_tAdcFifo.usWrite1++;
000a1c  3809              SUBS     r0,r0,#9
000a1e  8840              LDRH     r0,[r0,#2]  ; g_tAdcFifo
000a20  1c40              ADDS     r0,r0,#1
000a22  499d              LDR      r1,|L7.3224|
000a24  8048              STRH     r0,[r1,#2]
;;;588    //		g_tAdcFifo.sBuf1[g_tAdcFifo.usWrite1] = BUF5[0];
;;;589    //		g_tAdcFifo.usWrite1++;
;;;590    		g_tAdcFifo.sBuf1[g_tAdcFifo.usWrite1] = BUF5[1];
000a26  f89d149d          LDRB     r1,[sp,#0x49d]
000a2a  489b              LDR      r0,|L7.3224|
000a2c  8842              LDRH     r2,[r0,#2]  ; g_tAdcFifo
000a2e  3009              ADDS     r0,r0,#9
000a30  5481              STRB     r1,[r0,r2]
;;;591    		g_tAdcFifo.usWrite1++;
000a32  3809              SUBS     r0,r0,#9
000a34  8840              LDRH     r0,[r0,#2]  ; g_tAdcFifo
000a36  1c40              ADDS     r0,r0,#1
000a38  4997              LDR      r1,|L7.3224|
000a3a  8048              STRH     r0,[r1,#2]
;;;592    		g_tAdcFifo.sBuf1[g_tAdcFifo.usWrite1] = BUF5[2];
000a3c  f89d149e          LDRB     r1,[sp,#0x49e]
000a40  4895              LDR      r0,|L7.3224|
000a42  8842              LDRH     r2,[r0,#2]  ; g_tAdcFifo
000a44  3009              ADDS     r0,r0,#9
000a46  5481              STRB     r1,[r0,r2]
;;;593    		g_tAdcFifo.usWrite1++;
000a48  3809              SUBS     r0,r0,#9
000a4a  8840              LDRH     r0,[r0,#2]  ; g_tAdcFifo
000a4c  1c40              ADDS     r0,r0,#1
000a4e  4992              LDR      r1,|L7.3224|
000a50  8048              STRH     r0,[r1,#2]
;;;594    		g_tAdcFifo.sBuf1[g_tAdcFifo.usWrite1] = BUF5[3];
000a52  f89d149f          LDRB     r1,[sp,#0x49f]
000a56  4890              LDR      r0,|L7.3224|
000a58  8842              LDRH     r2,[r0,#2]  ; g_tAdcFifo
000a5a  3009              ADDS     r0,r0,#9
000a5c  5481              STRB     r1,[r0,r2]
;;;595    		g_tAdcFifo.usWrite1++;
000a5e  3809              SUBS     r0,r0,#9
000a60  8840              LDRH     r0,[r0,#2]  ; g_tAdcFifo
000a62  1c40              ADDS     r0,r0,#1
000a64  498c              LDR      r1,|L7.3224|
000a66  8048              STRH     r0,[r1,#2]
;;;596    		g_tAdcFifo.sBuf1[g_tAdcFifo.usWrite1] = BUF5[4];
000a68  f89d14a0          LDRB     r1,[sp,#0x4a0]
000a6c  488a              LDR      r0,|L7.3224|
000a6e  8842              LDRH     r2,[r0,#2]  ; g_tAdcFifo
000a70  3009              ADDS     r0,r0,#9
000a72  5481              STRB     r1,[r0,r2]
;;;597    		g_tAdcFifo.usWrite1++;
000a74  3809              SUBS     r0,r0,#9
000a76  8840              LDRH     r0,[r0,#2]  ; g_tAdcFifo
000a78  1c40              ADDS     r0,r0,#1
000a7a  4987              LDR      r1,|L7.3224|
000a7c  8048              STRH     r0,[r1,#2]
;;;598    		g_tAdcFifo.sBuf1[g_tAdcFifo.usWrite1] = ',';
000a7e  212c              MOVS     r1,#0x2c
000a80  4885              LDR      r0,|L7.3224|
000a82  8842              LDRH     r2,[r0,#2]  ; g_tAdcFifo
000a84  3009              ADDS     r0,r0,#9
000a86  5481              STRB     r1,[r0,r2]
;;;599    		g_tAdcFifo.usWrite1++;
000a88  3809              SUBS     r0,r0,#9
000a8a  8840              LDRH     r0,[r0,#2]  ; g_tAdcFifo
000a8c  1c40              ADDS     r0,r0,#1
000a8e  4982              LDR      r1,|L7.3224|
000a90  8048              STRH     r0,[r1,#2]
;;;600    //		g_tAdcFifo.sBuf1[g_tAdcFifo.usWrite1] = BUF6[0];
;;;601    //		g_tAdcFifo.usWrite1++;
;;;602    		g_tAdcFifo.sBuf1[g_tAdcFifo.usWrite1] = BUF6[1];
000a92  f89d1495          LDRB     r1,[sp,#0x495]
000a96  4880              LDR      r0,|L7.3224|
000a98  8842              LDRH     r2,[r0,#2]  ; g_tAdcFifo
000a9a  3009              ADDS     r0,r0,#9
000a9c  5481              STRB     r1,[r0,r2]
;;;603    		g_tAdcFifo.usWrite1++;
000a9e  3809              SUBS     r0,r0,#9
000aa0  8840              LDRH     r0,[r0,#2]  ; g_tAdcFifo
000aa2  1c40              ADDS     r0,r0,#1
000aa4  497c              LDR      r1,|L7.3224|
000aa6  8048              STRH     r0,[r1,#2]
;;;604    		g_tAdcFifo.sBuf1[g_tAdcFifo.usWrite1] = BUF6[2];
000aa8  f89d1496          LDRB     r1,[sp,#0x496]
000aac  487a              LDR      r0,|L7.3224|
000aae  8842              LDRH     r2,[r0,#2]  ; g_tAdcFifo
000ab0  3009              ADDS     r0,r0,#9
000ab2  5481              STRB     r1,[r0,r2]
;;;605    		g_tAdcFifo.usWrite1++;
000ab4  3809              SUBS     r0,r0,#9
000ab6  8840              LDRH     r0,[r0,#2]  ; g_tAdcFifo
000ab8  1c40              ADDS     r0,r0,#1
000aba  4977              LDR      r1,|L7.3224|
000abc  8048              STRH     r0,[r1,#2]
;;;606    		g_tAdcFifo.sBuf1[g_tAdcFifo.usWrite1] = BUF6[3];
000abe  f89d1497          LDRB     r1,[sp,#0x497]
000ac2  4875              LDR      r0,|L7.3224|
000ac4  8842              LDRH     r2,[r0,#2]  ; g_tAdcFifo
000ac6  3009              ADDS     r0,r0,#9
000ac8  5481              STRB     r1,[r0,r2]
;;;607    		g_tAdcFifo.usWrite1++;
000aca  3809              SUBS     r0,r0,#9
000acc  8840              LDRH     r0,[r0,#2]  ; g_tAdcFifo
000ace  1c40              ADDS     r0,r0,#1
000ad0  4971              LDR      r1,|L7.3224|
000ad2  8048              STRH     r0,[r1,#2]
;;;608    		g_tAdcFifo.sBuf1[g_tAdcFifo.usWrite1] = BUF6[4];
000ad4  f89d1498          LDRB     r1,[sp,#0x498]
000ad8  486f              LDR      r0,|L7.3224|
000ada  8842              LDRH     r2,[r0,#2]  ; g_tAdcFifo
000adc  3009              ADDS     r0,r0,#9
000ade  5481              STRB     r1,[r0,r2]
;;;609    		g_tAdcFifo.usWrite1++;
000ae0  3809              SUBS     r0,r0,#9
000ae2  8840              LDRH     r0,[r0,#2]  ; g_tAdcFifo
000ae4  1c40              ADDS     r0,r0,#1
000ae6  496c              LDR      r1,|L7.3224|
000ae8  8048              STRH     r0,[r1,#2]
;;;610    		g_tAdcFifo.sBuf1[g_tAdcFifo.usWrite1] = BUF6[5];
000aea  f89d1499          LDRB     r1,[sp,#0x499]
000aee  486a              LDR      r0,|L7.3224|
000af0  8842              LDRH     r2,[r0,#2]  ; g_tAdcFifo
000af2  3009              ADDS     r0,r0,#9
000af4  5481              STRB     r1,[r0,r2]
;;;611    		g_tAdcFifo.usWrite1++;
000af6  3809              SUBS     r0,r0,#9
000af8  8840              LDRH     r0,[r0,#2]  ; g_tAdcFifo
000afa  1c40              ADDS     r0,r0,#1
000afc  4966              LDR      r1,|L7.3224|
000afe  8048              STRH     r0,[r1,#2]
;;;612    		g_tAdcFifo.sBuf1[g_tAdcFifo.usWrite1] = '\n';
000b00  210a              MOVS     r1,#0xa
000b02  4865              LDR      r0,|L7.3224|
000b04  8842              LDRH     r2,[r0,#2]  ; g_tAdcFifo
000b06  3009              ADDS     r0,r0,#9
000b08  5481              STRB     r1,[r0,r2]
;;;613    		g_tAdcFifo.usWrite1++;
000b0a  3809              SUBS     r0,r0,#9
000b0c  8840              LDRH     r0,[r0,#2]  ; g_tAdcFifo
000b0e  1c40              ADDS     r0,r0,#1
000b10  4961              LDR      r1,|L7.3224|
000b12  8048              STRH     r0,[r1,#2]
                  |L7.2836|
;;;614    
;;;615    	}
;;;616    	if(Mark >= middle && Mark < end)
000b14  4544              CMP      r4,r8
000b16  db7d              BLT      |L7.3092|
000b18  454c              CMP      r4,r9
000b1a  da7b              BGE      |L7.3092|
;;;617    	{
;;;618    		g_tAdcFifo.sBuf2[g_tAdcFifo.usWrite2] = BUF8[0];
000b1c  f89d0488          LDRB     r0,[sp,#0x488]
000b20  495d              LDR      r1,|L7.3224|
000b22  8889              LDRH     r1,[r1,#4]  ; g_tAdcFifo
000b24  4a5d              LDR      r2,|L7.3228|
000b26  5450              STRB     r0,[r2,r1]
;;;619    		g_tAdcFifo.usWrite2++;
000b28  485b              LDR      r0,|L7.3224|
000b2a  8880              LDRH     r0,[r0,#4]  ; g_tAdcFifo
000b2c  1c40              ADDS     r0,r0,#1
000b2e  495a              LDR      r1,|L7.3224|
000b30  8088              STRH     r0,[r1,#4]
;;;620    		g_tAdcFifo.sBuf2[g_tAdcFifo.usWrite2] = BUF8[1];
000b32  f89d0489          LDRB     r0,[sp,#0x489]
000b36  8889              LDRH     r1,[r1,#4]  ; g_tAdcFifo
000b38  5450              STRB     r0,[r2,r1]
;;;621    		g_tAdcFifo.usWrite2++;
000b3a  4857              LDR      r0,|L7.3224|
000b3c  8880              LDRH     r0,[r0,#4]  ; g_tAdcFifo
000b3e  1c40              ADDS     r0,r0,#1
000b40  4955              LDR      r1,|L7.3224|
000b42  8088              STRH     r0,[r1,#4]
;;;622    		g_tAdcFifo.sBuf2[g_tAdcFifo.usWrite2] = BUF8[2];
000b44  f89d048a          LDRB     r0,[sp,#0x48a]
000b48  8889              LDRH     r1,[r1,#4]  ; g_tAdcFifo
000b4a  5450              STRB     r0,[r2,r1]
;;;623    		g_tAdcFifo.usWrite2++;
000b4c  4852              LDR      r0,|L7.3224|
000b4e  8880              LDRH     r0,[r0,#4]  ; g_tAdcFifo
000b50  1c40              ADDS     r0,r0,#1
000b52  4951              LDR      r1,|L7.3224|
000b54  8088              STRH     r0,[r1,#4]
;;;624    		g_tAdcFifo.sBuf2[g_tAdcFifo.usWrite2] = BUF8[3];
000b56  f89d148b          LDRB     r1,[sp,#0x48b]
000b5a  484f              LDR      r0,|L7.3224|
000b5c  8880              LDRH     r0,[r0,#4]  ; g_tAdcFifo
000b5e  5411              STRB     r1,[r2,r0]
;;;625    		g_tAdcFifo.usWrite2++;
000b60  484d              LDR      r0,|L7.3224|
000b62  8880              LDRH     r0,[r0,#4]  ; g_tAdcFifo
000b64  1c40              ADDS     r0,r0,#1
000b66  494c              LDR      r1,|L7.3224|
000b68  8088              STRH     r0,[r1,#4]
;;;626    		g_tAdcFifo.sBuf2[g_tAdcFifo.usWrite2] = BUF8[4];
000b6a  f89d048c          LDRB     r0,[sp,#0x48c]
000b6e  8889              LDRH     r1,[r1,#4]  ; g_tAdcFifo
000b70  5450              STRB     r0,[r2,r1]
;;;627    		g_tAdcFifo.usWrite2++;
000b72  4849              LDR      r0,|L7.3224|
000b74  8880              LDRH     r0,[r0,#4]  ; g_tAdcFifo
000b76  1c40              ADDS     r0,r0,#1
000b78  4947              LDR      r1,|L7.3224|
000b7a  8088              STRH     r0,[r1,#4]
;;;628    		g_tAdcFifo.sBuf2[g_tAdcFifo.usWrite2] = BUF8[5];
000b7c  f89d048d          LDRB     r0,[sp,#0x48d]
000b80  8889              LDRH     r1,[r1,#4]  ; g_tAdcFifo
000b82  5450              STRB     r0,[r2,r1]
;;;629    		g_tAdcFifo.usWrite2++;
000b84  4844              LDR      r0,|L7.3224|
000b86  8880              LDRH     r0,[r0,#4]  ; g_tAdcFifo
000b88  1c40              ADDS     r0,r0,#1
000b8a  4943              LDR      r1,|L7.3224|
000b8c  8088              STRH     r0,[r1,#4]
;;;630    		g_tAdcFifo.sBuf2[g_tAdcFifo.usWrite2] = BUF8[6];
000b8e  f89d148e          LDRB     r1,[sp,#0x48e]
000b92  4841              LDR      r0,|L7.3224|
000b94  8880              LDRH     r0,[r0,#4]  ; g_tAdcFifo
000b96  5411              STRB     r1,[r2,r0]
;;;631    		g_tAdcFifo.usWrite2++;
000b98  483f              LDR      r0,|L7.3224|
000b9a  8880              LDRH     r0,[r0,#4]  ; g_tAdcFifo
000b9c  1c40              ADDS     r0,r0,#1
000b9e  493e              LDR      r1,|L7.3224|
000ba0  8088              STRH     r0,[r1,#4]
;;;632    		g_tAdcFifo.sBuf2[g_tAdcFifo.usWrite2] = BUF8[7];
000ba2  f89d048f          LDRB     r0,[sp,#0x48f]
000ba6  8889              LDRH     r1,[r1,#4]  ; g_tAdcFifo
000ba8  5450              STRB     r0,[r2,r1]
;;;633    		g_tAdcFifo.usWrite2++;
000baa  483b              LDR      r0,|L7.3224|
000bac  8880              LDRH     r0,[r0,#4]  ; g_tAdcFifo
000bae  1c40              ADDS     r0,r0,#1
000bb0  4939              LDR      r1,|L7.3224|
000bb2  8088              STRH     r0,[r1,#4]
;;;634    		g_tAdcFifo.sBuf2[g_tAdcFifo.usWrite2] = BUF8[8];
000bb4  f89d0490          LDRB     r0,[sp,#0x490]
000bb8  8889              LDRH     r1,[r1,#4]  ; g_tAdcFifo
000bba  5450              STRB     r0,[r2,r1]
;;;635    		g_tAdcFifo.usWrite2++;
000bbc  4836              LDR      r0,|L7.3224|
000bbe  8880              LDRH     r0,[r0,#4]  ; g_tAdcFifo
000bc0  1c40              ADDS     r0,r0,#1
000bc2  4935              LDR      r1,|L7.3224|
000bc4  8088              STRH     r0,[r1,#4]
;;;636    		g_tAdcFifo.sBuf2[g_tAdcFifo.usWrite2] = BUF8[9];
000bc6  f89d0491          LDRB     r0,[sp,#0x491]
000bca  8889              LDRH     r1,[r1,#4]  ; g_tAdcFifo
000bcc  5450              STRB     r0,[r2,r1]
;;;637    		g_tAdcFifo.usWrite2++;
000bce  4832              LDR      r0,|L7.3224|
000bd0  8880              LDRH     r0,[r0,#4]  ; g_tAdcFifo
000bd2  1c40              ADDS     r0,r0,#1
000bd4  4930              LDR      r1,|L7.3224|
000bd6  8088              STRH     r0,[r1,#4]
;;;638    		g_tAdcFifo.sBuf2[g_tAdcFifo.usWrite2] = ',';
000bd8  202c              MOVS     r0,#0x2c
000bda  8889              LDRH     r1,[r1,#4]  ; g_tAdcFifo
000bdc  5450              STRB     r0,[r2,r1]
;;;639    		g_tAdcFifo.usWrite2++;
000bde  482e              LDR      r0,|L7.3224|
000be0  8880              LDRH     r0,[r0,#4]  ; g_tAdcFifo
000be2  1c40              ADDS     r0,r0,#1
000be4  492c              LDR      r1,|L7.3224|
000be6  8088              STRH     r0,[r1,#4]
;;;640    //		g_tAdcFifo.sBuf2[g_tAdcFifo.usWrite2] = BUF0[0];
;;;641    //		g_tAdcFifo.usWrite2++;
;;;642    		g_tAdcFifo.sBuf2[g_tAdcFifo.usWrite2] = BUF0[1];
000be8  f89d04c5          LDRB     r0,[sp,#0x4c5]
000bec  8889              LDRH     r1,[r1,#4]  ; g_tAdcFifo
000bee  5450              STRB     r0,[r2,r1]
;;;643    		g_tAdcFifo.usWrite2++;
000bf0  4829              LDR      r0,|L7.3224|
000bf2  8880              LDRH     r0,[r0,#4]  ; g_tAdcFifo
000bf4  1c40              ADDS     r0,r0,#1
000bf6  4928              LDR      r1,|L7.3224|
000bf8  8088              STRH     r0,[r1,#4]
;;;644    		g_tAdcFifo.sBuf2[g_tAdcFifo.usWrite2] = BUF0[2];
000bfa  f89d04c6          LDRB     r0,[sp,#0x4c6]
000bfe  8889              LDRH     r1,[r1,#4]  ; g_tAdcFifo
000c00  5450              STRB     r0,[r2,r1]
;;;645    		g_tAdcFifo.usWrite2++;
000c02  4825              LDR      r0,|L7.3224|
000c04  8880              LDRH     r0,[r0,#4]  ; g_tAdcFifo
000c06  1c40              ADDS     r0,r0,#1
000c08  4923              LDR      r1,|L7.3224|
000c0a  8088              STRH     r0,[r1,#4]
;;;646    		g_tAdcFifo.sBuf2[g_tAdcFifo.usWrite2] = BUF0[3];
000c0c  f89d14c7          LDRB     r1,[sp,#0x4c7]
000c10  4821              LDR      r0,|L7.3224|
000c12  e000              B        |L7.3094|
                  |L7.3092|
000c14  e146              B        |L7.3748|
                  |L7.3094|
000c16  8880              LDRH     r0,[r0,#4]  ; g_tAdcFifo
000c18  5411              STRB     r1,[r2,r0]
;;;647    		g_tAdcFifo.usWrite2++;
000c1a  481f              LDR      r0,|L7.3224|
000c1c  8880              LDRH     r0,[r0,#4]  ; g_tAdcFifo
000c1e  1c40              ADDS     r0,r0,#1
000c20  491d              LDR      r1,|L7.3224|
000c22  8088              STRH     r0,[r1,#4]
;;;648    		g_tAdcFifo.sBuf2[g_tAdcFifo.usWrite2] = BUF0[4];
000c24  f89d04c8          LDRB     r0,[sp,#0x4c8]
000c28  8889              LDRH     r1,[r1,#4]  ; g_tAdcFifo
000c2a  5450              STRB     r0,[r2,r1]
;;;649    		g_tAdcFifo.usWrite2++;
000c2c  481a              LDR      r0,|L7.3224|
000c2e  8880              LDRH     r0,[r0,#4]  ; g_tAdcFifo
000c30  1c40              ADDS     r0,r0,#1
000c32  4919              LDR      r1,|L7.3224|
000c34  8088              STRH     r0,[r1,#4]
;;;650    		g_tAdcFifo.sBuf2[g_tAdcFifo.usWrite2] = ',';
000c36  202c              MOVS     r0,#0x2c
000c38  8889              LDRH     r1,[r1,#4]  ; g_tAdcFifo
000c3a  5450              STRB     r0,[r2,r1]
;;;651    		g_tAdcFifo.usWrite2++;
000c3c  4816              LDR      r0,|L7.3224|
000c3e  8880              LDRH     r0,[r0,#4]  ; g_tAdcFifo
000c40  1c40              ADDS     r0,r0,#1
000c42  4915              LDR      r1,|L7.3224|
000c44  8088              STRH     r0,[r1,#4]
;;;652    //		g_tAdcFifo.sBuf2[g_tAdcFifo.usWrite2] = BUF1[0];
;;;653    //		g_tAdcFifo.usWrite2++;
;;;654    		g_tAdcFifo.sBuf2[g_tAdcFifo.usWrite2] = BUF1[1];
000c46  f89d04bd          LDRB     r0,[sp,#0x4bd]
000c4a  8889              LDRH     r1,[r1,#4]  ; g_tAdcFifo
000c4c  5450              STRB     r0,[r2,r1]
;;;655    		g_tAdcFifo.usWrite2++;
000c4e  4812              LDR      r0,|L7.3224|
000c50  8880              LDRH     r0,[r0,#4]  ; g_tAdcFifo
000c52  1c40              ADDS     r0,r0,#1
000c54  4910              LDR      r1,|L7.3224|
000c56  8088              STRH     r0,[r1,#4]
;;;656    		g_tAdcFifo.sBuf2[g_tAdcFifo.usWrite2] = BUF1[2];
000c58  f89d14be          LDRB     r1,[sp,#0x4be]
000c5c  480e              LDR      r0,|L7.3224|
000c5e  8880              LDRH     r0,[r0,#4]  ; g_tAdcFifo
000c60  5411              STRB     r1,[r2,r0]
;;;657    		g_tAdcFifo.usWrite2++;
000c62  480d              LDR      r0,|L7.3224|
000c64  8880              LDRH     r0,[r0,#4]  ; g_tAdcFifo
000c66  1c40              ADDS     r0,r0,#1
000c68  490b              LDR      r1,|L7.3224|
000c6a  8088              STRH     r0,[r1,#4]
;;;658    		g_tAdcFifo.sBuf2[g_tAdcFifo.usWrite2] = BUF1[3];
000c6c  f89d14bf          LDRB     r1,[sp,#0x4bf]
000c70  4809              LDR      r0,|L7.3224|
000c72  8880              LDRH     r0,[r0,#4]  ; g_tAdcFifo
000c74  5411              STRB     r1,[r2,r0]
;;;659    		g_tAdcFifo.usWrite2++;
000c76  4808              LDR      r0,|L7.3224|
000c78  8880              LDRH     r0,[r0,#4]  ; g_tAdcFifo
000c7a  1c40              ADDS     r0,r0,#1
000c7c  4906              LDR      r1,|L7.3224|
000c7e  8088              STRH     r0,[r1,#4]
;;;660    		g_tAdcFifo.sBuf2[g_tAdcFifo.usWrite2] = BUF1[4];
000c80  f89d14c0          LDRB     r1,[sp,#0x4c0]
000c84  4804              LDR      r0,|L7.3224|
000c86  8880              LDRH     r0,[r0,#4]  ; g_tAdcFifo
000c88  5411              STRB     r1,[r2,r0]
;;;661    		g_tAdcFifo.usWrite2++;
000c8a  4803              LDR      r0,|L7.3224|
000c8c  8880              LDRH     r0,[r0,#4]  ; g_tAdcFifo
000c8e  1c40              ADDS     r0,r0,#1
000c90  4901              LDR      r1,|L7.3224|
000c92  8088              STRH     r0,[r1,#4]
;;;662    		g_tAdcFifo.sBuf2[g_tAdcFifo.usWrite2] = ',';
000c94  202c              MOVS     r0,#0x2c
000c96  e003              B        |L7.3232|
                  |L7.3224|
                          DCD      g_tAdcFifo
                  |L7.3228|
                          DCD      g_tAdcFifo+0x2009
                  |L7.3232|
000ca0  8889              LDRH     r1,[r1,#4]  ; g_tAdcFifo
000ca2  5450              STRB     r0,[r2,r1]
;;;663    		g_tAdcFifo.usWrite2++;
000ca4  48a3              LDR      r0,|L7.3892|
000ca6  8880              LDRH     r0,[r0,#4]  ; g_tAdcFifo
000ca8  1c40              ADDS     r0,r0,#1
000caa  49a2              LDR      r1,|L7.3892|
000cac  8088              STRH     r0,[r1,#4]
;;;664    //		g_tAdcFifo.sBuf2[g_tAdcFifo.usWrite2] = BUF2[0];
;;;665    //		g_tAdcFifo.usWrite2++;
;;;666    		g_tAdcFifo.sBuf2[g_tAdcFifo.usWrite2] = BUF2[1];
000cae  f89d14b5          LDRB     r1,[sp,#0x4b5]
000cb2  48a0              LDR      r0,|L7.3892|
000cb4  8880              LDRH     r0,[r0,#4]  ; g_tAdcFifo
000cb6  5411              STRB     r1,[r2,r0]
;;;667    		g_tAdcFifo.usWrite2++;
000cb8  489e              LDR      r0,|L7.3892|
000cba  8880              LDRH     r0,[r0,#4]  ; g_tAdcFifo
000cbc  1c40              ADDS     r0,r0,#1
000cbe  499d              LDR      r1,|L7.3892|
000cc0  8088              STRH     r0,[r1,#4]
;;;668    		g_tAdcFifo.sBuf2[g_tAdcFifo.usWrite2] = BUF2[2];
000cc2  f89d04b6          LDRB     r0,[sp,#0x4b6]
000cc6  8889              LDRH     r1,[r1,#4]  ; g_tAdcFifo
000cc8  5450              STRB     r0,[r2,r1]
;;;669    		g_tAdcFifo.usWrite2++;
000cca  489a              LDR      r0,|L7.3892|
000ccc  8880              LDRH     r0,[r0,#4]  ; g_tAdcFifo
000cce  1c40              ADDS     r0,r0,#1
000cd0  4998              LDR      r1,|L7.3892|
000cd2  8088              STRH     r0,[r1,#4]
;;;670    		g_tAdcFifo.sBuf2[g_tAdcFifo.usWrite2] = BUF2[3];
000cd4  f89d14b7          LDRB     r1,[sp,#0x4b7]
000cd8  4896              LDR      r0,|L7.3892|
000cda  8880              LDRH     r0,[r0,#4]  ; g_tAdcFifo
000cdc  5411              STRB     r1,[r2,r0]
;;;671    		g_tAdcFifo.usWrite2++;
000cde  4895              LDR      r0,|L7.3892|
000ce0  8880              LDRH     r0,[r0,#4]  ; g_tAdcFifo
000ce2  1c40              ADDS     r0,r0,#1
000ce4  4993              LDR      r1,|L7.3892|
000ce6  8088              STRH     r0,[r1,#4]
;;;672    		g_tAdcFifo.sBuf2[g_tAdcFifo.usWrite2] = BUF2[4];
000ce8  f89d04b8          LDRB     r0,[sp,#0x4b8]
000cec  8889              LDRH     r1,[r1,#4]  ; g_tAdcFifo
000cee  5450              STRB     r0,[r2,r1]
;;;673    		g_tAdcFifo.usWrite2++;
000cf0  4890              LDR      r0,|L7.3892|
000cf2  8880              LDRH     r0,[r0,#4]  ; g_tAdcFifo
000cf4  1c40              ADDS     r0,r0,#1
000cf6  498f              LDR      r1,|L7.3892|
000cf8  8088              STRH     r0,[r1,#4]
;;;674    		g_tAdcFifo.sBuf2[g_tAdcFifo.usWrite2] = ',';
000cfa  212c              MOVS     r1,#0x2c
000cfc  488d              LDR      r0,|L7.3892|
000cfe  8880              LDRH     r0,[r0,#4]  ; g_tAdcFifo
000d00  5411              STRB     r1,[r2,r0]
;;;675    		g_tAdcFifo.usWrite2++;	
000d02  488c              LDR      r0,|L7.3892|
000d04  8880              LDRH     r0,[r0,#4]  ; g_tAdcFifo
000d06  1c40              ADDS     r0,r0,#1
000d08  498a              LDR      r1,|L7.3892|
000d0a  8088              STRH     r0,[r1,#4]
;;;676    //		g_tAdcFifo.sBuf2[g_tAdcFifo.usWrite2] = BUF3[0];
;;;677    //		g_tAdcFifo.usWrite2++;
;;;678    		g_tAdcFifo.sBuf2[g_tAdcFifo.usWrite2] = BUF3[1];
000d0c  f89d14ad          LDRB     r1,[sp,#0x4ad]
000d10  4888              LDR      r0,|L7.3892|
000d12  8880              LDRH     r0,[r0,#4]  ; g_tAdcFifo
000d14  5411              STRB     r1,[r2,r0]
;;;679    		g_tAdcFifo.usWrite2++;
000d16  4887              LDR      r0,|L7.3892|
000d18  8880              LDRH     r0,[r0,#4]  ; g_tAdcFifo
000d1a  1c40              ADDS     r0,r0,#1
000d1c  4985              LDR      r1,|L7.3892|
000d1e  8088              STRH     r0,[r1,#4]
;;;680    		g_tAdcFifo.sBuf2[g_tAdcFifo.usWrite2] = BUF3[2];
000d20  f89d04ae          LDRB     r0,[sp,#0x4ae]
000d24  8889              LDRH     r1,[r1,#4]  ; g_tAdcFifo
000d26  5450              STRB     r0,[r2,r1]
;;;681    		g_tAdcFifo.usWrite2++;
000d28  4882              LDR      r0,|L7.3892|
000d2a  8880              LDRH     r0,[r0,#4]  ; g_tAdcFifo
000d2c  1c40              ADDS     r0,r0,#1
000d2e  4981              LDR      r1,|L7.3892|
000d30  8088              STRH     r0,[r1,#4]
;;;682    		g_tAdcFifo.sBuf2[g_tAdcFifo.usWrite2] = BUF3[3];
000d32  f89d04af          LDRB     r0,[sp,#0x4af]
000d36  8889              LDRH     r1,[r1,#4]  ; g_tAdcFifo
000d38  5450              STRB     r0,[r2,r1]
;;;683    		g_tAdcFifo.usWrite2++;
000d3a  487e              LDR      r0,|L7.3892|
000d3c  8880              LDRH     r0,[r0,#4]  ; g_tAdcFifo
000d3e  1c40              ADDS     r0,r0,#1
000d40  497c              LDR      r1,|L7.3892|
000d42  8088              STRH     r0,[r1,#4]
;;;684    		g_tAdcFifo.sBuf2[g_tAdcFifo.usWrite2] = BUF3[4];
000d44  f89d14b0          LDRB     r1,[sp,#0x4b0]
000d48  487a              LDR      r0,|L7.3892|
000d4a  8880              LDRH     r0,[r0,#4]  ; g_tAdcFifo
000d4c  5411              STRB     r1,[r2,r0]
;;;685    		g_tAdcFifo.usWrite2++;
000d4e  4879              LDR      r0,|L7.3892|
000d50  8880              LDRH     r0,[r0,#4]  ; g_tAdcFifo
000d52  1c40              ADDS     r0,r0,#1
000d54  4977              LDR      r1,|L7.3892|
000d56  8088              STRH     r0,[r1,#4]
;;;686    		g_tAdcFifo.sBuf2[g_tAdcFifo.usWrite2] = ',';
000d58  212c              MOVS     r1,#0x2c
000d5a  4876              LDR      r0,|L7.3892|
000d5c  8880              LDRH     r0,[r0,#4]  ; g_tAdcFifo
000d5e  5411              STRB     r1,[r2,r0]
;;;687    		g_tAdcFifo.usWrite2++;
000d60  4874              LDR      r0,|L7.3892|
000d62  8880              LDRH     r0,[r0,#4]  ; g_tAdcFifo
000d64  1c40              ADDS     r0,r0,#1
000d66  4973              LDR      r1,|L7.3892|
000d68  8088              STRH     r0,[r1,#4]
;;;688    //		g_tAdcFifo.sBuf2[g_tAdcFifo.usWrite2] = BUF4[0];
;;;689    //		g_tAdcFifo.usWrite2++;
;;;690    		g_tAdcFifo.sBuf2[g_tAdcFifo.usWrite2] = BUF4[1];
000d6a  f89d04a5          LDRB     r0,[sp,#0x4a5]
000d6e  8889              LDRH     r1,[r1,#4]  ; g_tAdcFifo
000d70  5450              STRB     r0,[r2,r1]
;;;691    		g_tAdcFifo.usWrite2++;
000d72  4870              LDR      r0,|L7.3892|
000d74  8880              LDRH     r0,[r0,#4]  ; g_tAdcFifo
000d76  1c40              ADDS     r0,r0,#1
000d78  496e              LDR      r1,|L7.3892|
000d7a  8088              STRH     r0,[r1,#4]
;;;692    		g_tAdcFifo.sBuf2[g_tAdcFifo.usWrite2] = BUF4[2];
000d7c  f89d04a6          LDRB     r0,[sp,#0x4a6]
000d80  8889              LDRH     r1,[r1,#4]  ; g_tAdcFifo
000d82  5450              STRB     r0,[r2,r1]
;;;693    		g_tAdcFifo.usWrite2++;
000d84  486b              LDR      r0,|L7.3892|
000d86  8880              LDRH     r0,[r0,#4]  ; g_tAdcFifo
000d88  1c40              ADDS     r0,r0,#1
000d8a  496a              LDR      r1,|L7.3892|
000d8c  8088              STRH     r0,[r1,#4]
;;;694    		g_tAdcFifo.sBuf2[g_tAdcFifo.usWrite2] = BUF4[3];
000d8e  f89d14a7          LDRB     r1,[sp,#0x4a7]
000d92  4868              LDR      r0,|L7.3892|
000d94  8880              LDRH     r0,[r0,#4]  ; g_tAdcFifo
000d96  5411              STRB     r1,[r2,r0]
;;;695    		g_tAdcFifo.usWrite2++;
000d98  4866              LDR      r0,|L7.3892|
000d9a  8880              LDRH     r0,[r0,#4]  ; g_tAdcFifo
000d9c  1c40              ADDS     r0,r0,#1
000d9e  4965              LDR      r1,|L7.3892|
000da0  8088              STRH     r0,[r1,#4]
;;;696    		g_tAdcFifo.sBuf2[g_tAdcFifo.usWrite2] = BUF4[4];
000da2  f89d14a8          LDRB     r1,[sp,#0x4a8]
000da6  4863              LDR      r0,|L7.3892|
000da8  8880              LDRH     r0,[r0,#4]  ; g_tAdcFifo
000daa  5411              STRB     r1,[r2,r0]
;;;697    		g_tAdcFifo.usWrite2++;
000dac  4861              LDR      r0,|L7.3892|
000dae  8880              LDRH     r0,[r0,#4]  ; g_tAdcFifo
000db0  1c40              ADDS     r0,r0,#1
000db2  4960              LDR      r1,|L7.3892|
000db4  8088              STRH     r0,[r1,#4]
;;;698    		g_tAdcFifo.sBuf2[g_tAdcFifo.usWrite2] = ',';
000db6  212c              MOVS     r1,#0x2c
000db8  485e              LDR      r0,|L7.3892|
000dba  8880              LDRH     r0,[r0,#4]  ; g_tAdcFifo
000dbc  5411              STRB     r1,[r2,r0]
;;;699    		g_tAdcFifo.usWrite2++;
000dbe  485d              LDR      r0,|L7.3892|
000dc0  8880              LDRH     r0,[r0,#4]  ; g_tAdcFifo
000dc2  1c40              ADDS     r0,r0,#1
000dc4  495b              LDR      r1,|L7.3892|
000dc6  8088              STRH     r0,[r1,#4]
;;;700    //		g_tAdcFifo.sBuf2[g_tAdcFifo.usWrite2] = BUF5[0];
;;;701    //		g_tAdcFifo.usWrite2++;
;;;702    		g_tAdcFifo.sBuf2[g_tAdcFifo.usWrite2] = BUF5[1];
000dc8  f89d149d          LDRB     r1,[sp,#0x49d]
000dcc  4859              LDR      r0,|L7.3892|
000dce  8880              LDRH     r0,[r0,#4]  ; g_tAdcFifo
000dd0  5411              STRB     r1,[r2,r0]
;;;703    		g_tAdcFifo.usWrite2++;
000dd2  4858              LDR      r0,|L7.3892|
000dd4  8880              LDRH     r0,[r0,#4]  ; g_tAdcFifo
000dd6  1c40              ADDS     r0,r0,#1
000dd8  4956              LDR      r1,|L7.3892|
000dda  8088              STRH     r0,[r1,#4]
;;;704    		g_tAdcFifo.sBuf2[g_tAdcFifo.usWrite2] = BUF5[2];
000ddc  f89d149e          LDRB     r1,[sp,#0x49e]
000de0  4854              LDR      r0,|L7.3892|
000de2  8880              LDRH     r0,[r0,#4]  ; g_tAdcFifo
000de4  5411              STRB     r1,[r2,r0]
;;;705    		g_tAdcFifo.usWrite2++;
000de6  4853              LDR      r0,|L7.3892|
000de8  8880              LDRH     r0,[r0,#4]  ; g_tAdcFifo
000dea  1c40              ADDS     r0,r0,#1
000dec  4951              LDR      r1,|L7.3892|
000dee  8088              STRH     r0,[r1,#4]
;;;706    		g_tAdcFifo.sBuf2[g_tAdcFifo.usWrite2] = BUF5[3];
000df0  f89d149f          LDRB     r1,[sp,#0x49f]
000df4  484f              LDR      r0,|L7.3892|
000df6  8880              LDRH     r0,[r0,#4]  ; g_tAdcFifo
000df8  5411              STRB     r1,[r2,r0]
;;;707    		g_tAdcFifo.usWrite2++;
000dfa  484e              LDR      r0,|L7.3892|
000dfc  8880              LDRH     r0,[r0,#4]  ; g_tAdcFifo
000dfe  1c40              ADDS     r0,r0,#1
000e00  494c              LDR      r1,|L7.3892|
000e02  8088              STRH     r0,[r1,#4]
;;;708    		g_tAdcFifo.sBuf2[g_tAdcFifo.usWrite2] = BUF5[4];
000e04  f89d14a0          LDRB     r1,[sp,#0x4a0]
000e08  484a              LDR      r0,|L7.3892|
000e0a  8880              LDRH     r0,[r0,#4]  ; g_tAdcFifo
000e0c  5411              STRB     r1,[r2,r0]
;;;709    		g_tAdcFifo.usWrite2++;
000e0e  4849              LDR      r0,|L7.3892|
000e10  8880              LDRH     r0,[r0,#4]  ; g_tAdcFifo
000e12  1c40              ADDS     r0,r0,#1
000e14  4947              LDR      r1,|L7.3892|
000e16  8088              STRH     r0,[r1,#4]
;;;710    		g_tAdcFifo.sBuf2[g_tAdcFifo.usWrite2] = ',';
000e18  212c              MOVS     r1,#0x2c
000e1a  4846              LDR      r0,|L7.3892|
000e1c  8880              LDRH     r0,[r0,#4]  ; g_tAdcFifo
000e1e  5411              STRB     r1,[r2,r0]
;;;711    		g_tAdcFifo.usWrite2++;
000e20  4844              LDR      r0,|L7.3892|
000e22  8880              LDRH     r0,[r0,#4]  ; g_tAdcFifo
000e24  1c40              ADDS     r0,r0,#1
000e26  4943              LDR      r1,|L7.3892|
000e28  8088              STRH     r0,[r1,#4]
;;;712    //		g_tAdcFifo.sBuf2[g_tAdcFifo.usWrite2] = BUF6[0];
;;;713    //		g_tAdcFifo.usWrite2++;
;;;714    		g_tAdcFifo.sBuf2[g_tAdcFifo.usWrite2] = BUF6[1];
000e2a  f89d1495          LDRB     r1,[sp,#0x495]
000e2e  4841              LDR      r0,|L7.3892|
000e30  8880              LDRH     r0,[r0,#4]  ; g_tAdcFifo
000e32  5411              STRB     r1,[r2,r0]
;;;715    		g_tAdcFifo.usWrite2++;
000e34  483f              LDR      r0,|L7.3892|
000e36  8880              LDRH     r0,[r0,#4]  ; g_tAdcFifo
000e38  1c40              ADDS     r0,r0,#1
000e3a  493e              LDR      r1,|L7.3892|
000e3c  8088              STRH     r0,[r1,#4]
;;;716    		g_tAdcFifo.sBuf2[g_tAdcFifo.usWrite2] = BUF6[2];
000e3e  f89d1496          LDRB     r1,[sp,#0x496]
000e42  483c              LDR      r0,|L7.3892|
000e44  8880              LDRH     r0,[r0,#4]  ; g_tAdcFifo
000e46  5411              STRB     r1,[r2,r0]
;;;717    		g_tAdcFifo.usWrite2++;
000e48  483a              LDR      r0,|L7.3892|
000e4a  8880              LDRH     r0,[r0,#4]  ; g_tAdcFifo
000e4c  1c40              ADDS     r0,r0,#1
000e4e  4939              LDR      r1,|L7.3892|
000e50  8088              STRH     r0,[r1,#4]
;;;718    		g_tAdcFifo.sBuf2[g_tAdcFifo.usWrite2] = BUF6[3];
000e52  f89d1497          LDRB     r1,[sp,#0x497]
000e56  4837              LDR      r0,|L7.3892|
000e58  8880              LDRH     r0,[r0,#4]  ; g_tAdcFifo
000e5a  e000              B        |L7.3678|
                  |L7.3676|
000e5c  e035              B        |L7.3786|
                  |L7.3678|
000e5e  5411              STRB     r1,[r2,r0]
;;;719    		g_tAdcFifo.usWrite2++;
000e60  4834              LDR      r0,|L7.3892|
000e62  8880              LDRH     r0,[r0,#4]  ; g_tAdcFifo
000e64  1c40              ADDS     r0,r0,#1
000e66  4933              LDR      r1,|L7.3892|
000e68  8088              STRH     r0,[r1,#4]
;;;720    		g_tAdcFifo.sBuf2[g_tAdcFifo.usWrite2] = BUF6[4];
000e6a  f89d1498          LDRB     r1,[sp,#0x498]
000e6e  4831              LDR      r0,|L7.3892|
000e70  8880              LDRH     r0,[r0,#4]  ; g_tAdcFifo
000e72  5411              STRB     r1,[r2,r0]
;;;721    		g_tAdcFifo.usWrite2++;
000e74  482f              LDR      r0,|L7.3892|
000e76  8880              LDRH     r0,[r0,#4]  ; g_tAdcFifo
000e78  1c40              ADDS     r0,r0,#1
000e7a  492e              LDR      r1,|L7.3892|
000e7c  8088              STRH     r0,[r1,#4]
;;;722    		g_tAdcFifo.sBuf2[g_tAdcFifo.usWrite2] = BUF6[5];
000e7e  f89d1499          LDRB     r1,[sp,#0x499]
000e82  482c              LDR      r0,|L7.3892|
000e84  8880              LDRH     r0,[r0,#4]  ; g_tAdcFifo
000e86  5411              STRB     r1,[r2,r0]
;;;723    		g_tAdcFifo.usWrite2++;
000e88  482a              LDR      r0,|L7.3892|
000e8a  8880              LDRH     r0,[r0,#4]  ; g_tAdcFifo
000e8c  1c40              ADDS     r0,r0,#1
000e8e  4929              LDR      r1,|L7.3892|
000e90  8088              STRH     r0,[r1,#4]
;;;724    		g_tAdcFifo.sBuf2[g_tAdcFifo.usWrite2] = '\n';
000e92  210a              MOVS     r1,#0xa
000e94  4827              LDR      r0,|L7.3892|
000e96  8880              LDRH     r0,[r0,#4]  ; g_tAdcFifo
000e98  5411              STRB     r1,[r2,r0]
;;;725    		g_tAdcFifo.usWrite2++;		
000e9a  4826              LDR      r0,|L7.3892|
000e9c  8880              LDRH     r0,[r0,#4]  ; g_tAdcFifo
000e9e  1c40              ADDS     r0,r0,#1
000ea0  4924              LDR      r1,|L7.3892|
000ea2  8088              STRH     r0,[r1,#4]
                  |L7.3748|
;;;726    
;;;727    	}
;;;728    
;;;729    	Mark++;
000ea4  1c60              ADDS     r0,r4,#1
000ea6  b284              UXTH     r4,r0
;;;730    	
;;;731    	if(Mark == middle)
000ea8  4544              CMP      r4,r8
000eaa  d104              BNE      |L7.3766|
;;;732    	{
;;;733    
;;;734    		Calibration = 1;
000eac  f04f0b01          MOV      r11,#1
;;;735     		g_tAdcFifo.usWrite1 = 0;
000eb0  2000              MOVS     r0,#0
000eb2  4920              LDR      r1,|L7.3892|
000eb4  8048              STRH     r0,[r1,#2]
                  |L7.3766|
;;;736    	
;;;737    	}
;;;738    		if(Mark == end)
000eb6  454c              CMP      r4,r9
000eb8  d104              BNE      |L7.3780|
;;;739    	{
;;;740    
;;;741    		Calibration = 2;
000eba  f04f0b02          MOV      r11,#2
;;;742     		g_tAdcFifo.usWrite2 = 0;
000ebe  2000              MOVS     r0,#0
000ec0  491c              LDR      r1,|L7.3892|
000ec2  8088              STRH     r0,[r1,#4]
                  |L7.3780|
;;;743    		
;;;744    	}
;;;745    	
;;;746    	
;;;747    		biaozhi = 0;
000ec4  2000              MOVS     r0,#0
000ec6  491c              LDR      r1,|L7.3896|
000ec8  7008              STRB     r0,[r1,#0]
                  |L7.3786|
;;;748    
;;;749    
;;;750    }
;;;751    
;;;752    
;;;753    ////写16进制数
;;;754    
;;;755    //if(biaozhi == 1)
;;;756    //{
;;;757    //	num=(circle_count-1)*2400+TIM_GetCounter(TIM4);
;;;758    //	len = num*80*3.14/4/600;
;;;759    
;;;760    //	if(Mark==end)
;;;761    //	{
;;;762    //		Mark=0;
;;;763    //		
;;;764    //	}
;;;765    //	//一次15个int16_t
;;;766    //	if(Mark<middle)
;;;767    //	{
;;;768    //		g_tAdcFifo.sBuf1[g_tAdcFifo.usWrite1] = (len>>16);					
;;;769    //		g_tAdcFifo.usWrite1++;
;;;770    //		g_tAdcFifo.sBuf1[g_tAdcFifo.usWrite1] = len;
;;;771    //		g_tAdcFifo.usWrite1++;
;;;772    //		g_tAdcFifo.sBuf1[g_tAdcFifo.usWrite1] = ',';
;;;773    //		g_tAdcFifo.usWrite1++;
;;;774    //		
;;;775    //		g_tAdcFifo.sBuf1[g_tAdcFifo.usWrite1] = g_tAD7606.sNowAdc[0];
;;;776    //		g_tAdcFifo.usWrite1++;
;;;777    //		g_tAdcFifo.sBuf1[g_tAdcFifo.usWrite1] = ',';
;;;778    //		g_tAdcFifo.usWrite1++;
;;;779    //		g_tAdcFifo.sBuf1[g_tAdcFifo.usWrite1] = g_tAD7606.sNowAdc[1];
;;;780    //		g_tAdcFifo.usWrite1++;
;;;781    //		g_tAdcFifo.sBuf1[g_tAdcFifo.usWrite1] = ',';
;;;782    //		g_tAdcFifo.usWrite1++;
;;;783    //		g_tAdcFifo.sBuf1[g_tAdcFifo.usWrite1] = g_tAD7606.sNowAdc[2];
;;;784    //		g_tAdcFifo.usWrite1++;
;;;785    //		g_tAdcFifo.sBuf1[g_tAdcFifo.usWrite1] = ',';
;;;786    //		g_tAdcFifo.usWrite1++;
;;;787    //		g_tAdcFifo.sBuf1[g_tAdcFifo.usWrite1] = g_tAD7606.sNowAdc[3];
;;;788    //		g_tAdcFifo.usWrite1++;
;;;789    //		g_tAdcFifo.sBuf1[g_tAdcFifo.usWrite1] = ',';
;;;790    //		g_tAdcFifo.usWrite1++;	
;;;791    //		g_tAdcFifo.sBuf1[g_tAdcFifo.usWrite1] = g_tAD7606.sNowAdc[4];
;;;792    //		g_tAdcFifo.usWrite1++;
;;;793    //		g_tAdcFifo.sBuf1[g_tAdcFifo.usWrite1] = ',';
;;;794    //		g_tAdcFifo.usWrite1++;
;;;795    //		g_tAdcFifo.sBuf1[g_tAdcFifo.usWrite1] = g_tAD7606.sNowAdc[5];
;;;796    //		g_tAdcFifo.usWrite1++;
;;;797    //		g_tAdcFifo.sBuf1[g_tAdcFifo.usWrite1] = '\n';
;;;798    //		g_tAdcFifo.usWrite1++;
;;;799    
;;;800    //	}
;;;801    //	if(Mark >= middle && Mark < end)
;;;802    //	{
;;;803    //		g_tAdcFifo.sBuf2[g_tAdcFifo.usWrite2] = (len>>16);					
;;;804    //		g_tAdcFifo.usWrite2++;
;;;805    //		g_tAdcFifo.sBuf2[g_tAdcFifo.usWrite2] = len;
;;;806    //		g_tAdcFifo.usWrite2++;
;;;807    //		g_tAdcFifo.sBuf2[g_tAdcFifo.usWrite2] = ',';
;;;808    //		g_tAdcFifo.usWrite2++;
;;;809    //		
;;;810    //		g_tAdcFifo.sBuf2[g_tAdcFifo.usWrite2] = g_tAD7606.sNowAdc[0];
;;;811    //		g_tAdcFifo.usWrite2++;
;;;812    //		g_tAdcFifo.sBuf2[g_tAdcFifo.usWrite2] = ',';
;;;813    //		g_tAdcFifo.usWrite2++;
;;;814    //		g_tAdcFifo.sBuf2[g_tAdcFifo.usWrite2] = g_tAD7606.sNowAdc[1];
;;;815    //		g_tAdcFifo.usWrite2++;
;;;816    //		g_tAdcFifo.sBuf2[g_tAdcFifo.usWrite2] = ',';
;;;817    //		g_tAdcFifo.usWrite2++;
;;;818    //		g_tAdcFifo.sBuf2[g_tAdcFifo.usWrite2] = g_tAD7606.sNowAdc[2];
;;;819    //		g_tAdcFifo.usWrite2++;
;;;820    //		g_tAdcFifo.sBuf2[g_tAdcFifo.usWrite2] = ',';
;;;821    //		g_tAdcFifo.usWrite2++;		
;;;822    //		g_tAdcFifo.sBuf2[g_tAdcFifo.usWrite2] = g_tAD7606.sNowAdc[3];
;;;823    //		g_tAdcFifo.usWrite2++;
;;;824    //		g_tAdcFifo.sBuf2[g_tAdcFifo.usWrite2] = ',';
;;;825    //		g_tAdcFifo.usWrite2++;
;;;826    //		g_tAdcFifo.sBuf2[g_tAdcFifo.usWrite2] = g_tAD7606.sNowAdc[4];
;;;827    //		g_tAdcFifo.usWrite2++;
;;;828    //		g_tAdcFifo.sBuf2[g_tAdcFifo.usWrite2] = ',';
;;;829    //		g_tAdcFifo.usWrite2++;
;;;830    //		g_tAdcFifo.sBuf2[g_tAdcFifo.usWrite2] = g_tAD7606.sNowAdc[5];
;;;831    //		g_tAdcFifo.usWrite2++;
;;;832    //		g_tAdcFifo.sBuf2[g_tAdcFifo.usWrite2] = ',';
;;;833    //		g_tAdcFifo.usWrite2++;
;;;834    
;;;835    //	}
;;;836    
;;;837    //	Mark++;
;;;838    //	
;;;839    //	if(Mark == middle)
;;;840    //	{
;;;841    
;;;842    //		Calibration = 1;
;;;843    // 		g_tAdcFifo.usWrite1 = 0;
;;;844    //	
;;;845    //	}
;;;846    //		if(Mark == end)
;;;847    //	{
;;;848    
;;;849    //		Calibration = 2;
;;;850    // 		g_tAdcFifo.usWrite2 = 0;
;;;851    //		
;;;852    //	}
;;;853    //	
;;;854    //	
;;;855    //		biaozhi = 0;
;;;856    
;;;857    
;;;858    //}
;;;859    	
;;;860    	
;;;861    	
;;;862    	
;;;863    	
;;;864    if(Calibration == 1)
000eca  f1bb0f01          CMP      r11,#1
000ece  d116              BNE      |L7.3838|
;;;865    {
;;;866    	f_lseek(&file,f_size(&file));
000ed0  a80b              ADD      r0,sp,#0x2c
000ed2  990e              LDR      r1,[sp,#0x38]
000ed4  f7fffffe          BL       f_lseek
;;;867    	f_write(&file, g_tAdcFifo.sBuf1, sizeof(g_tAdcFifo.sBuf1), &bw);
000ed8  ab01              ADD      r3,sp,#4
000eda  f44f5200          MOV      r2,#0x2000
000ede  4915              LDR      r1,|L7.3892|
000ee0  3109              ADDS     r1,r1,#9
000ee2  a80b              ADD      r0,sp,#0x2c
000ee4  f7fffffe          BL       f_write
;;;868    	f_sync(&file);
000ee8  a80b              ADD      r0,sp,#0x2c
000eea  f7fffffe          BL       f_sync
;;;869    	memset(g_tAdcFifo.sBuf1,0,sizeof(g_tAdcFifo.sBuf1));
000eee  f44f5100          MOV      r1,#0x2000
000ef2  4810              LDR      r0,|L7.3892|
000ef4  3009              ADDS     r0,r0,#9
000ef6  f7fffffe          BL       __aeabi_memclr
;;;870    	Calibration = 0;
000efa  f04f0b00          MOV      r11,#0
                  |L7.3838|
;;;871    }
;;;872    if(Calibration == 2)
000efe  f1bb0f02          CMP      r11,#2
000f02  d114              BNE      |L7.3886|
;;;873    {
;;;874    	f_lseek(&file,f_size(&file));
000f04  a80b              ADD      r0,sp,#0x2c
000f06  990e              LDR      r1,[sp,#0x38]
000f08  f7fffffe          BL       f_lseek
;;;875    	f_write(&file, g_tAdcFifo.sBuf2, sizeof(g_tAdcFifo.sBuf2), &bw);
000f0c  ab01              ADD      r3,sp,#4
000f0e  f44f5200          MOV      r2,#0x2000
000f12  490a              LDR      r1,|L7.3900|
000f14  a80b              ADD      r0,sp,#0x2c
000f16  f7fffffe          BL       f_write
;;;876    	f_sync(&file);
000f1a  a80b              ADD      r0,sp,#0x2c
000f1c  f7fffffe          BL       f_sync
;;;877    	memset(g_tAdcFifo.sBuf2,0,sizeof(g_tAdcFifo.sBuf2));
000f20  f44f5100          MOV      r1,#0x2000
000f24  4805              LDR      r0,|L7.3900|
000f26  f7fffffe          BL       __aeabi_memclr
;;;878    	Calibration = 0;
000f2a  f04f0b00          MOV      r11,#0
                  |L7.3886|
000f2e  f7ffb896          B        |L7.94|
;;;879    }
;;;880    
;;;881    					
;;;882    			
;;;883    
;;;884    }//while函数的括号
;;;885    
;;;886    }//main函数的括号
;;;887    
                          ENDP

000f32  0000              DCW      0x0000
                  |L7.3892|
                          DCD      g_tAdcFifo
                  |L7.3896|
                          DCD      biaozhi
                  |L7.3900|
                          DCD      g_tAdcFifo+0x2009

                          AREA ||.bss||, DATA, NOINIT, ALIGN=3

                  value_buf0
                          %        18
                  value_buf1
                          %        18
                  value_buf2
                          %        18
                  value_buf3
                          %        18
                  value_buf4
                          %        18
                  value_buf5
                          %        18
                  value_buf6
                          %        18
                  chan
                          %        18
                  bart_x
                          %        72
                  bart_y
                          %        72

                          AREA ||.data||, DATA, ALIGN=3

                  count
000000  00                DCB      0x00
                  count_1
000001  000000            DCB      0x00,0x00,0x00
                  biaozhi_lb
                          DCD      0x00000000
                  biaozhi_lb_1
                          DCD      0x00000000
                  ||sum||
00000c  0000              DCB      0x00,0x00
                  sum_lb
00000e  0000              DCB      0x00,0x00
                  bart_a
000010  00000000          DCFD     0x3ff0000000000000 ; 1
000014  3ff00000
000018  87e7b5eb          DCFD     0xc01e744187e7b5eb ; -7.6135312304663598
00001c  c01e7441
000020  939f8697          DCFD     0x40395e77939f8697 ; 25.369012094923701
000024  40395e77
000028  beabfe6e          DCFD     0xc048290cbeabfe6e ; -48.3207014407934
00002c  c048290c
000030  eb14f563          DCFD     0x404cc577eb14f563 ; 57.542722115739501
000034  404cc577
000038  a579df0e          DCFD     0xc045ef6ba579df0e ; -43.870472607142901
00003c  c045ef6b
000040  497c820d          DCFD     0x4034e93c497c820d ; 20.911076157472099
000044  4034e93c
000048  7ba88795          DCFD     0xc016ca357ba88795 ; -5.6974696466076198
00004c  c016ca35
000050  bdb1a3ed          DCFD     0x3fe5bd5abdb1a3ed ; 0.67936455773917503
000054  3fe5bd5a
                  bart_b
000058  00000004          DCFD     0x3d8db14000000004 ; 3.3756331063727901e-12
00005c  3d8db140
000060  fffffffe          DCFD     0x3dbdb13ffffffffe ; 2.7005064850982301e-11
000064  3dbdb13f
000068  00000002          DCFD     0x3dd9fb1800000002 ; 9.4517726978438103e-11
00006c  3dd9fb18
000070  fffffffa          DCFD     0x3de9fb17fffffffa ; 1.89035453956876e-10
000074  3de9fb17
000078  fffffffc          DCFD     0x3df03ceefffffffc ; 2.3629431744609499e-10
00007c  3df03cee
000080  fffffffa          DCFD     0x3de9fb17fffffffa ; 1.89035453956876e-10
000084  3de9fb17
000088  00000002          DCFD     0x3dd9fb1800000002 ; 9.4517726978438103e-11
00008c  3dd9fb18
000090  fffffffe          DCFD     0x3dbdb13ffffffffe ; 2.7005064850982301e-11
000094  3dbdb13f
000098  00000004          DCFD     0x3d8db14000000004 ; 3.3756331063727901e-12
00009c  3d8db140
                  bart_count_x
0000a0  00                DCB      0x00
                  bart_count_y
0000a1  000000            DCB      0x00,0x00,0x00
                  bart_count
                          DCD      0x00000000
                  biaozhi_bart
                          DCD      0x00000000
                  sum_lb_bart
0000ac  0000              DCB      0x00,0x00

;*** Start embedded assembler ***

#line 1 "..\\..\\User\\main.c"
	AREA ||.rev16_text||, CODE
	THUMB
	EXPORT |__asm___6_main_c_count____REV16|
#line 129 "..\\..\\Libraries\\CMSIS\\Include\\core_cmInstr.h"
|__asm___6_main_c_count____REV16| PROC
#line 130

 rev16 r0, r0
 bx lr
	ENDP
	AREA ||.revsh_text||, CODE
	THUMB
	EXPORT |__asm___6_main_c_count____REVSH|
#line 144
|__asm___6_main_c_count____REVSH| PROC
#line 145

 revsh r0, r0
 bx lr
	ENDP

;*** End   embedded assembler ***

                  __ARM_use_no_argv EQU 0
